Archive member included because of file (symbol)

c:/users/gordon/documents/university/computer_graphics_architecture/dev/devkitpro/devkitarm/bin/../lib/gcc/arm-eabi/4.6.1/../../../../arm-eabi/lib/thumb\libstdc++.a(new_op.o)
                              main.o (operator new(unsigned int))
c:/users/gordon/documents/university/computer_graphics_architecture/dev/devkitpro/devkitarm/bin/../lib/gcc/arm-eabi/4.6.1/../../../../arm-eabi/lib/thumb\libstdc++.a(bad_alloc.o)
                              c:/users/gordon/documents/university/computer_graphics_architecture/dev/devkitpro/devkitarm/bin/../lib/gcc/arm-eabi/4.6.1/../../../../arm-eabi/lib/thumb\libstdc++.a(new_op.o) (typeinfo for std::bad_alloc)
c:/users/gordon/documents/university/computer_graphics_architecture/dev/devkitpro/devkitarm/bin/../lib/gcc/arm-eabi/4.6.1/../../../../arm-eabi/lib/thumb\libstdc++.a(del_op.o)
                              c:/users/gordon/documents/university/computer_graphics_architecture/dev/devkitpro/devkitarm/bin/../lib/gcc/arm-eabi/4.6.1/../../../../arm-eabi/lib/thumb\libstdc++.a(bad_alloc.o) (operator delete(void*))
c:/users/gordon/documents/university/computer_graphics_architecture/dev/devkitpro/devkitarm/bin/../lib/gcc/arm-eabi/4.6.1/../../../../arm-eabi/lib/thumb\libstdc++.a(eh_alloc.o)
                              c:/users/gordon/documents/university/computer_graphics_architecture/dev/devkitpro/devkitarm/bin/../lib/gcc/arm-eabi/4.6.1/../../../../arm-eabi/lib/thumb\libstdc++.a(new_op.o) (__cxa_allocate_exception)
c:/users/gordon/documents/university/computer_graphics_architecture/dev/devkitpro/devkitarm/bin/../lib/gcc/arm-eabi/4.6.1/../../../../arm-eabi/lib/thumb\libstdc++.a(eh_arm.o)
                              c:/users/gordon/documents/university/computer_graphics_architecture/dev/devkitpro/devkitarm/bin/../lib/gcc/arm-eabi/4.6.1/../../../../arm-eabi/lib/thumb\libstdc++.a(new_op.o) (__cxa_end_cleanup)
c:/users/gordon/documents/university/computer_graphics_architecture/dev/devkitpro/devkitarm/bin/../lib/gcc/arm-eabi/4.6.1/../../../../arm-eabi/lib/thumb\libstdc++.a(eh_aux_runtime.o)
                              c:/users/gordon/documents/university/computer_graphics_architecture/dev/devkitpro/devkitarm/bin/../lib/gcc/arm-eabi/4.6.1/../../../../arm-eabi/lib/thumb\libstdc++.a(eh_arm.o) (__cxa_bad_typeid)
c:/users/gordon/documents/university/computer_graphics_architecture/dev/devkitpro/devkitarm/bin/../lib/gcc/arm-eabi/4.6.1/../../../../arm-eabi/lib/thumb\libstdc++.a(eh_call.o)
                              c:/users/gordon/documents/university/computer_graphics_architecture/dev/devkitpro/devkitarm/bin/../lib/gcc/arm-eabi/4.6.1/../../../../arm-eabi/lib/thumb\libstdc++.a(new_op.o) (__cxa_call_unexpected)
c:/users/gordon/documents/university/computer_graphics_architecture/dev/devkitpro/devkitarm/bin/../lib/gcc/arm-eabi/4.6.1/../../../../arm-eabi/lib/thumb\libstdc++.a(eh_catch.o)
                              c:/users/gordon/documents/university/computer_graphics_architecture/dev/devkitpro/devkitarm/bin/../lib/gcc/arm-eabi/4.6.1/../../../../arm-eabi/lib/thumb\libstdc++.a(eh_call.o) (__cxa_begin_catch)
c:/users/gordon/documents/university/computer_graphics_architecture/dev/devkitpro/devkitarm/bin/../lib/gcc/arm-eabi/4.6.1/../../../../arm-eabi/lib/thumb\libstdc++.a(eh_exception.o)
                              c:/users/gordon/documents/university/computer_graphics_architecture/dev/devkitpro/devkitarm/bin/../lib/gcc/arm-eabi/4.6.1/../../../../arm-eabi/lib/thumb\libstdc++.a(bad_alloc.o) (std::exception::~exception())
c:/users/gordon/documents/university/computer_graphics_architecture/dev/devkitpro/devkitarm/bin/../lib/gcc/arm-eabi/4.6.1/../../../../arm-eabi/lib/thumb\libstdc++.a(eh_globals.o)
                              c:/users/gordon/documents/university/computer_graphics_architecture/dev/devkitpro/devkitarm/bin/../lib/gcc/arm-eabi/4.6.1/../../../../arm-eabi/lib/thumb\libstdc++.a(eh_call.o) (__cxa_get_globals_fast)
c:/users/gordon/documents/university/computer_graphics_architecture/dev/devkitpro/devkitarm/bin/../lib/gcc/arm-eabi/4.6.1/../../../../arm-eabi/lib/thumb\libstdc++.a(eh_personality.o)
                              c:/users/gordon/documents/university/computer_graphics_architecture/dev/devkitpro/devkitarm/bin/../lib/gcc/arm-eabi/4.6.1/../../../../arm-eabi/lib/thumb\libstdc++.a(new_op.o) (__gxx_personality_v0)
c:/users/gordon/documents/university/computer_graphics_architecture/dev/devkitpro/devkitarm/bin/../lib/gcc/arm-eabi/4.6.1/../../../../arm-eabi/lib/thumb\libstdc++.a(eh_terminate.o)
                              c:/users/gordon/documents/university/computer_graphics_architecture/dev/devkitpro/devkitarm/bin/../lib/gcc/arm-eabi/4.6.1/../../../../arm-eabi/lib/thumb\libstdc++.a(eh_call.o) (__cxxabiv1::__terminate(void (*)()))
c:/users/gordon/documents/university/computer_graphics_architecture/dev/devkitpro/devkitarm/bin/../lib/gcc/arm-eabi/4.6.1/../../../../arm-eabi/lib/thumb\libstdc++.a(eh_term_handler.o)
                              c:/users/gordon/documents/university/computer_graphics_architecture/dev/devkitpro/devkitarm/bin/../lib/gcc/arm-eabi/4.6.1/../../../../arm-eabi/lib/thumb\libstdc++.a(eh_terminate.o) (__cxxabiv1::__terminate_handler)
c:/users/gordon/documents/university/computer_graphics_architecture/dev/devkitpro/devkitarm/bin/../lib/gcc/arm-eabi/4.6.1/../../../../arm-eabi/lib/thumb\libstdc++.a(eh_throw.o)
                              c:/users/gordon/documents/university/computer_graphics_architecture/dev/devkitpro/devkitarm/bin/../lib/gcc/arm-eabi/4.6.1/../../../../arm-eabi/lib/thumb\libstdc++.a(new_op.o) (__cxa_throw)
c:/users/gordon/documents/university/computer_graphics_architecture/dev/devkitpro/devkitarm/bin/../lib/gcc/arm-eabi/4.6.1/../../../../arm-eabi/lib/thumb\libstdc++.a(eh_unex_handler.o)
                              c:/users/gordon/documents/university/computer_graphics_architecture/dev/devkitpro/devkitarm/bin/../lib/gcc/arm-eabi/4.6.1/../../../../arm-eabi/lib/thumb\libstdc++.a(eh_terminate.o) (__cxxabiv1::__unexpected_handler)
c:/users/gordon/documents/university/computer_graphics_architecture/dev/devkitpro/devkitarm/bin/../lib/gcc/arm-eabi/4.6.1/../../../../arm-eabi/lib/thumb\libstdc++.a(fundamental_type_info.o)
                              c:/users/gordon/documents/university/computer_graphics_architecture/dev/devkitpro/devkitarm/bin/../lib/gcc/arm-eabi/4.6.1/../../../../arm-eabi/lib/thumb\libstdc++.a(eh_arm.o) (typeinfo for void)
c:/users/gordon/documents/university/computer_graphics_architecture/dev/devkitpro/devkitarm/bin/../lib/gcc/arm-eabi/4.6.1/../../../../arm-eabi/lib/thumb\libstdc++.a(new_handler.o)
                              c:/users/gordon/documents/university/computer_graphics_architecture/dev/devkitpro/devkitarm/bin/../lib/gcc/arm-eabi/4.6.1/../../../../arm-eabi/lib/thumb\libstdc++.a(new_op.o) (__new_handler)
c:/users/gordon/documents/university/computer_graphics_architecture/dev/devkitpro/devkitarm/bin/../lib/gcc/arm-eabi/4.6.1/../../../../arm-eabi/lib/thumb\libstdc++.a(pointer_type_info.o)
                              c:/users/gordon/documents/university/computer_graphics_architecture/dev/devkitpro/devkitarm/bin/../lib/gcc/arm-eabi/4.6.1/../../../../arm-eabi/lib/thumb\libstdc++.a(fundamental_type_info.o) (vtable for __cxxabiv1::__pointer_type_info)
c:/users/gordon/documents/university/computer_graphics_architecture/dev/devkitpro/devkitarm/bin/../lib/gcc/arm-eabi/4.6.1/../../../../arm-eabi/lib/thumb\libstdc++.a(pure.o)
                              c:/users/gordon/documents/university/computer_graphics_architecture/dev/devkitpro/devkitarm/bin/../lib/gcc/arm-eabi/4.6.1/../../../../arm-eabi/lib/thumb\libstdc++.a(eh_exception.o) (__cxa_pure_virtual)
c:/users/gordon/documents/university/computer_graphics_architecture/dev/devkitpro/devkitarm/bin/../lib/gcc/arm-eabi/4.6.1/../../../../arm-eabi/lib/thumb\libstdc++.a(si_class_type_info.o)
                              c:/users/gordon/documents/university/computer_graphics_architecture/dev/devkitpro/devkitarm/bin/../lib/gcc/arm-eabi/4.6.1/../../../../arm-eabi/lib/thumb\libstdc++.a(bad_alloc.o) (vtable for __cxxabiv1::__si_class_type_info)
c:/users/gordon/documents/university/computer_graphics_architecture/dev/devkitpro/devkitarm/bin/../lib/gcc/arm-eabi/4.6.1/../../../../arm-eabi/lib/thumb\libstdc++.a(tinfo.o)
                              c:/users/gordon/documents/university/computer_graphics_architecture/dev/devkitpro/devkitarm/bin/../lib/gcc/arm-eabi/4.6.1/../../../../arm-eabi/lib/thumb\libstdc++.a(fundamental_type_info.o) (std::type_info::~type_info())
c:/users/gordon/documents/university/computer_graphics_architecture/dev/devkitpro/devkitarm/bin/../lib/gcc/arm-eabi/4.6.1/../../../../arm-eabi/lib/thumb\libstdc++.a(vterminate.o)
                              c:/users/gordon/documents/university/computer_graphics_architecture/dev/devkitpro/devkitarm/bin/../lib/gcc/arm-eabi/4.6.1/../../../../arm-eabi/lib/thumb\libstdc++.a(eh_term_handler.o) (__gnu_cxx::__verbose_terminate_handler())
c:/users/gordon/documents/university/computer_graphics_architecture/dev/devkitpro/devkitarm/bin/../lib/gcc/arm-eabi/4.6.1/../../../../arm-eabi/lib/thumb\libstdc++.a(bad_cast.o)
                              c:/users/gordon/documents/university/computer_graphics_architecture/dev/devkitpro/devkitarm/bin/../lib/gcc/arm-eabi/4.6.1/../../../../arm-eabi/lib/thumb\libstdc++.a(eh_aux_runtime.o) (typeinfo for std::bad_cast)
c:/users/gordon/documents/university/computer_graphics_architecture/dev/devkitpro/devkitarm/bin/../lib/gcc/arm-eabi/4.6.1/../../../../arm-eabi/lib/thumb\libstdc++.a(bad_typeid.o)
                              c:/users/gordon/documents/university/computer_graphics_architecture/dev/devkitpro/devkitarm/bin/../lib/gcc/arm-eabi/4.6.1/../../../../arm-eabi/lib/thumb\libstdc++.a(eh_aux_runtime.o) (typeinfo for std::bad_typeid)
c:/users/gordon/documents/university/computer_graphics_architecture/dev/devkitpro/devkitarm/bin/../lib/gcc/arm-eabi/4.6.1/../../../../arm-eabi/lib/thumb\libstdc++.a(class_type_info.o)
                              c:/users/gordon/documents/university/computer_graphics_architecture/dev/devkitpro/devkitarm/bin/../lib/gcc/arm-eabi/4.6.1/../../../../arm-eabi/lib/thumb\libstdc++.a(si_class_type_info.o) (__cxxabiv1::__class_type_info::__do_upcast(__cxxabiv1::__class_type_info const*, void**) const)
c:/users/gordon/documents/university/computer_graphics_architecture/dev/devkitpro/devkitarm/bin/../lib/gcc/arm-eabi/4.6.1/../../../../arm-eabi/lib/thumb\libstdc++.a(cp-demangle.o)
                              c:/users/gordon/documents/university/computer_graphics_architecture/dev/devkitpro/devkitarm/bin/../lib/gcc/arm-eabi/4.6.1/../../../../arm-eabi/lib/thumb\libstdc++.a(vterminate.o) (__cxa_demangle)
c:/users/gordon/documents/university/computer_graphics_architecture/dev/devkitpro/devkitarm/bin/../lib/gcc/arm-eabi/4.6.1/../../../../arm-eabi/lib/thumb\libstdc++.a(eh_type.o)
                              c:/users/gordon/documents/university/computer_graphics_architecture/dev/devkitpro/devkitarm/bin/../lib/gcc/arm-eabi/4.6.1/../../../../arm-eabi/lib/thumb\libstdc++.a(vterminate.o) (__cxa_current_exception_type)
c:/users/gordon/documents/university/computer_graphics_architecture/dev/devkitpro/devkitarm/bin/../lib/gcc/arm-eabi/4.6.1/../../../../arm-eabi/lib/thumb\libstdc++.a(pbase_type_info.o)
                              c:/users/gordon/documents/university/computer_graphics_architecture/dev/devkitpro/devkitarm/bin/../lib/gcc/arm-eabi/4.6.1/../../../../arm-eabi/lib/thumb\libstdc++.a(pointer_type_info.o) (__cxxabiv1::__pbase_type_info::~__pbase_type_info())
c:/users/gordon/documents/university/computer_graphics_architecture/dev/devkitpro/devkitarm/bin/../lib/gcc/arm-eabi/4.6.1/thumb\libgcc.a(_udivsi3.o)
                              c:/users/gordon/documents/university/computer_graphics_architecture/dev/devkitpro/devkitarm/bin/../lib/gcc/arm-eabi/4.6.1/../../../../arm-eabi/lib/thumb\libstdc++.a(eh_alloc.o) (__aeabi_uidiv)
c:/users/gordon/documents/university/computer_graphics_architecture/dev/devkitpro/devkitarm/bin/../lib/gcc/arm-eabi/4.6.1/thumb\libgcc.a(_dvmd_tls.o)
                              c:/users/gordon/documents/university/computer_graphics_architecture/dev/devkitpro/devkitarm/bin/../lib/gcc/arm-eabi/4.6.1/thumb\libgcc.a(_udivsi3.o) (__aeabi_idiv0)
c:/users/gordon/documents/university/computer_graphics_architecture/dev/devkitpro/devkitarm/bin/../lib/gcc/arm-eabi/4.6.1/thumb\libgcc.a(unwind-arm.o)
                              c:/users/gordon/documents/university/computer_graphics_architecture/dev/devkitpro/devkitarm/bin/../lib/gcc/arm-eabi/4.6.1/../../../../arm-eabi/lib/thumb\libstdc++.a(eh_arm.o) (__aeabi_unwind_cpp_pr0)
c:/users/gordon/documents/university/computer_graphics_architecture/dev/devkitpro/devkitarm/bin/../lib/gcc/arm-eabi/4.6.1/thumb\libgcc.a(libunwind.o)
                              c:/users/gordon/documents/university/computer_graphics_architecture/dev/devkitpro/devkitarm/bin/../lib/gcc/arm-eabi/4.6.1/thumb\libgcc.a(unwind-arm.o) (restore_core_regs)
c:/users/gordon/documents/university/computer_graphics_architecture/dev/devkitpro/devkitarm/bin/../lib/gcc/arm-eabi/4.6.1/thumb\libgcc.a(pr-support.o)
                              c:/users/gordon/documents/university/computer_graphics_architecture/dev/devkitpro/devkitarm/bin/../lib/gcc/arm-eabi/4.6.1/thumb\libgcc.a(unwind-arm.o) (__gnu_unwind_execute)
c:/users/gordon/documents/university/computer_graphics_architecture/dev/devkitpro/devkitarm/bin/../lib/gcc/arm-eabi/4.6.1/../../../../arm-eabi/lib/thumb\libg.a(lib_a-abort.o)
                              c:/users/gordon/documents/university/computer_graphics_architecture/dev/devkitpro/devkitarm/bin/../lib/gcc/arm-eabi/4.6.1/../../../../arm-eabi/lib/thumb\libstdc++.a(eh_personality.o) (abort)
c:/users/gordon/documents/university/computer_graphics_architecture/dev/devkitpro/devkitarm/bin/../lib/gcc/arm-eabi/4.6.1/../../../../arm-eabi/lib/thumb\libg.a(lib_a-fputc.o)
                              c:/users/gordon/documents/university/computer_graphics_architecture/dev/devkitpro/devkitarm/bin/../lib/gcc/arm-eabi/4.6.1/../../../../arm-eabi/lib/thumb\libstdc++.a(vterminate.o) (fputc)
c:/users/gordon/documents/university/computer_graphics_architecture/dev/devkitpro/devkitarm/bin/../lib/gcc/arm-eabi/4.6.1/../../../../arm-eabi/lib/thumb\libg.a(lib_a-fputs.o)
                              c:/users/gordon/documents/university/computer_graphics_architecture/dev/devkitpro/devkitarm/bin/../lib/gcc/arm-eabi/4.6.1/../../../../arm-eabi/lib/thumb\libstdc++.a(vterminate.o) (fputs)
c:/users/gordon/documents/university/computer_graphics_architecture/dev/devkitpro/devkitarm/bin/../lib/gcc/arm-eabi/4.6.1/../../../../arm-eabi/lib/thumb\libg.a(lib_a-fvwrite.o)
                              c:/users/gordon/documents/university/computer_graphics_architecture/dev/devkitpro/devkitarm/bin/../lib/gcc/arm-eabi/4.6.1/../../../../arm-eabi/lib/thumb\libg.a(lib_a-fputs.o) (__sfvwrite_r)
c:/users/gordon/documents/university/computer_graphics_architecture/dev/devkitpro/devkitarm/bin/../lib/gcc/arm-eabi/4.6.1/../../../../arm-eabi/lib/thumb\libg.a(lib_a-fwrite.o)
                              c:/users/gordon/documents/university/computer_graphics_architecture/dev/devkitpro/devkitarm/bin/../lib/gcc/arm-eabi/4.6.1/../../../../arm-eabi/lib/thumb\libstdc++.a(vterminate.o) (fwrite)
c:/users/gordon/documents/university/computer_graphics_architecture/dev/devkitpro/devkitarm/bin/../lib/gcc/arm-eabi/4.6.1/../../../../arm-eabi/lib/thumb\libg.a(lib_a-impure.o)
                              c:/users/gordon/documents/university/computer_graphics_architecture/dev/devkitpro/devkitarm/bin/../lib/gcc/arm-eabi/4.6.1/../../../../arm-eabi/lib/thumb\libstdc++.a(vterminate.o) (_impure_ptr)
c:/users/gordon/documents/university/computer_graphics_architecture/dev/devkitpro/devkitarm/bin/../lib/gcc/arm-eabi/4.6.1/../../../../arm-eabi/lib/thumb\libg.a(lib_a-init.o)
                              c:/users/gordon/documents/university/computer_graphics_architecture/dev/devkitpro/devkitarm/bin/../lib/gcc/arm-eabi/4.6.1/../../../../arm-eabi/lib/thumb/gba_crt0.o (__libc_init_array)
c:/users/gordon/documents/university/computer_graphics_architecture/dev/devkitpro/devkitarm/bin/../lib/gcc/arm-eabi/4.6.1/../../../../arm-eabi/lib/thumb\libg.a(lib_a-malloc.o)
                              c:/users/gordon/documents/university/computer_graphics_architecture/dev/devkitpro/devkitarm/bin/../lib/gcc/arm-eabi/4.6.1/../../../../arm-eabi/lib/thumb\libstdc++.a(new_op.o) (malloc)
c:/users/gordon/documents/university/computer_graphics_architecture/dev/devkitpro/devkitarm/bin/../lib/gcc/arm-eabi/4.6.1/../../../../arm-eabi/lib/thumb\libg.a(lib_a-mallocr.o)
                              c:/users/gordon/documents/university/computer_graphics_architecture/dev/devkitpro/devkitarm/bin/../lib/gcc/arm-eabi/4.6.1/../../../../arm-eabi/lib/thumb\libg.a(lib_a-fvwrite.o) (_malloc_r)
c:/users/gordon/documents/university/computer_graphics_architecture/dev/devkitpro/devkitarm/bin/../lib/gcc/arm-eabi/4.6.1/../../../../arm-eabi/lib/thumb\libg.a(lib_a-memchr.o)
                              c:/users/gordon/documents/university/computer_graphics_architecture/dev/devkitpro/devkitarm/bin/../lib/gcc/arm-eabi/4.6.1/../../../../arm-eabi/lib/thumb\libg.a(lib_a-fvwrite.o) (memchr)
c:/users/gordon/documents/university/computer_graphics_architecture/dev/devkitpro/devkitarm/bin/../lib/gcc/arm-eabi/4.6.1/../../../../arm-eabi/lib/thumb\libg.a(lib_a-memcmp.o)
                              c:/users/gordon/documents/university/computer_graphics_architecture/dev/devkitpro/devkitarm/bin/../lib/gcc/arm-eabi/4.6.1/../../../../arm-eabi/lib/thumb\libstdc++.a(cp-demangle.o) (memcmp)
c:/users/gordon/documents/university/computer_graphics_architecture/dev/devkitpro/devkitarm/bin/../lib/gcc/arm-eabi/4.6.1/../../../../arm-eabi/lib/thumb\libg.a(lib_a-memcpy.o)
                              c:/users/gordon/documents/university/computer_graphics_architecture/dev/devkitpro/devkitarm/bin/../lib/gcc/arm-eabi/4.6.1/../../../../arm-eabi/lib/thumb\libstdc++.a(cp-demangle.o) (memcpy)
c:/users/gordon/documents/university/computer_graphics_architecture/dev/devkitpro/devkitarm/bin/../lib/gcc/arm-eabi/4.6.1/../../../../arm-eabi/lib/thumb\libg.a(lib_a-memmove.o)
                              c:/users/gordon/documents/university/computer_graphics_architecture/dev/devkitpro/devkitarm/bin/../lib/gcc/arm-eabi/4.6.1/../../../../arm-eabi/lib/thumb\libg.a(lib_a-fvwrite.o) (memmove)
c:/users/gordon/documents/university/computer_graphics_architecture/dev/devkitpro/devkitarm/bin/../lib/gcc/arm-eabi/4.6.1/../../../../arm-eabi/lib/thumb\libg.a(lib_a-memset.o)
                              c:/users/gordon/documents/university/computer_graphics_architecture/dev/devkitpro/devkitarm/bin/../lib/gcc/arm-eabi/4.6.1/../../../../arm-eabi/lib/thumb\libstdc++.a(eh_alloc.o) (memset)
c:/users/gordon/documents/university/computer_graphics_architecture/dev/devkitpro/devkitarm/bin/../lib/gcc/arm-eabi/4.6.1/../../../../arm-eabi/lib/thumb\libg.a(lib_a-mlock.o)
                              c:/users/gordon/documents/university/computer_graphics_architecture/dev/devkitpro/devkitarm/bin/../lib/gcc/arm-eabi/4.6.1/../../../../arm-eabi/lib/thumb\libg.a(lib_a-mallocr.o) (__malloc_lock)
c:/users/gordon/documents/university/computer_graphics_architecture/dev/devkitpro/devkitarm/bin/../lib/gcc/arm-eabi/4.6.1/../../../../arm-eabi/lib/thumb\libg.a(lib_a-putc.o)
                              c:/users/gordon/documents/university/computer_graphics_architecture/dev/devkitpro/devkitarm/bin/../lib/gcc/arm-eabi/4.6.1/../../../../arm-eabi/lib/thumb\libg.a(lib_a-fputc.o) (_putc_r)
c:/users/gordon/documents/university/computer_graphics_architecture/dev/devkitpro/devkitarm/bin/../lib/gcc/arm-eabi/4.6.1/../../../../arm-eabi/lib/thumb\libg.a(lib_a-realloc.o)
                              c:/users/gordon/documents/university/computer_graphics_architecture/dev/devkitpro/devkitarm/bin/../lib/gcc/arm-eabi/4.6.1/../../../../arm-eabi/lib/thumb\libstdc++.a(cp-demangle.o) (realloc)
c:/users/gordon/documents/university/computer_graphics_architecture/dev/devkitpro/devkitarm/bin/../lib/gcc/arm-eabi/4.6.1/../../../../arm-eabi/lib/thumb\libg.a(lib_a-reallocr.o)
                              c:/users/gordon/documents/university/computer_graphics_architecture/dev/devkitpro/devkitarm/bin/../lib/gcc/arm-eabi/4.6.1/../../../../arm-eabi/lib/thumb\libg.a(lib_a-fvwrite.o) (_realloc_r)
c:/users/gordon/documents/university/computer_graphics_architecture/dev/devkitpro/devkitarm/bin/../lib/gcc/arm-eabi/4.6.1/../../../../arm-eabi/lib/thumb\libg.a(lib_a-signal.o)
                              c:/users/gordon/documents/university/computer_graphics_architecture/dev/devkitpro/devkitarm/bin/../lib/gcc/arm-eabi/4.6.1/../../../../arm-eabi/lib/thumb\libg.a(lib_a-abort.o) (raise)
c:/users/gordon/documents/university/computer_graphics_architecture/dev/devkitpro/devkitarm/bin/../lib/gcc/arm-eabi/4.6.1/../../../../arm-eabi/lib/thumb\libg.a(lib_a-sprintf.o)
                              c:/users/gordon/documents/university/computer_graphics_architecture/dev/devkitpro/devkitarm/bin/../lib/gcc/arm-eabi/4.6.1/../../../../arm-eabi/lib/thumb\libstdc++.a(cp-demangle.o) (sprintf)
c:/users/gordon/documents/university/computer_graphics_architecture/dev/devkitpro/devkitarm/bin/../lib/gcc/arm-eabi/4.6.1/../../../../arm-eabi/lib/thumb\libg.a(lib_a-strcmp.o)
                              c:/users/gordon/documents/university/computer_graphics_architecture/dev/devkitpro/devkitarm/bin/../lib/gcc/arm-eabi/4.6.1/../../../../arm-eabi/lib/thumb\libstdc++.a(tinfo.o) (strcmp)
c:/users/gordon/documents/university/computer_graphics_architecture/dev/devkitpro/devkitarm/bin/../lib/gcc/arm-eabi/4.6.1/../../../../arm-eabi/lib/thumb\libg.a(lib_a-strcpy.o)
                              c:/users/gordon/documents/university/computer_graphics_architecture/dev/devkitpro/devkitarm/bin/../lib/gcc/arm-eabi/4.6.1/../../../../arm-eabi/lib/thumb\libstdc++.a(cp-demangle.o) (strcpy)
c:/users/gordon/documents/university/computer_graphics_architecture/dev/devkitpro/devkitarm/bin/../lib/gcc/arm-eabi/4.6.1/../../../../arm-eabi/lib/thumb\libg.a(lib_a-strlen.o)
                              c:/users/gordon/documents/university/computer_graphics_architecture/dev/devkitpro/devkitarm/bin/../lib/gcc/arm-eabi/4.6.1/../../../../arm-eabi/lib/thumb\libstdc++.a(cp-demangle.o) (strlen)
c:/users/gordon/documents/university/computer_graphics_architecture/dev/devkitpro/devkitarm/bin/../lib/gcc/arm-eabi/4.6.1/../../../../arm-eabi/lib/thumb\libg.a(lib_a-strncmp.o)
                              c:/users/gordon/documents/university/computer_graphics_architecture/dev/devkitpro/devkitarm/bin/../lib/gcc/arm-eabi/4.6.1/../../../../arm-eabi/lib/thumb\libstdc++.a(cp-demangle.o) (strncmp)
c:/users/gordon/documents/university/computer_graphics_architecture/dev/devkitpro/devkitarm/bin/../lib/gcc/arm-eabi/4.6.1/../../../../arm-eabi/lib/thumb\libg.a(lib_a-svfprintf.o)
                              c:/users/gordon/documents/university/computer_graphics_architecture/dev/devkitpro/devkitarm/bin/../lib/gcc/arm-eabi/4.6.1/../../../../arm-eabi/lib/thumb\libg.a(lib_a-sprintf.o) (_svfprintf_r)
c:/users/gordon/documents/university/computer_graphics_architecture/dev/devkitpro/devkitarm/bin/../lib/gcc/arm-eabi/4.6.1/../../../../arm-eabi/lib/thumb\libg.a(lib_a-syswrite.o)
                              c:/users/gordon/documents/university/computer_graphics_architecture/dev/devkitpro/devkitarm/bin/../lib/gcc/arm-eabi/4.6.1/../../../../arm-eabi/lib/thumb\libstdc++.a(pure.o) (write)
c:/users/gordon/documents/university/computer_graphics_architecture/dev/devkitpro/devkitarm/bin/../lib/gcc/arm-eabi/4.6.1/../../../../arm-eabi/lib/thumb\libg.a(lib_a-wbuf.o)
                              c:/users/gordon/documents/university/computer_graphics_architecture/dev/devkitpro/devkitarm/bin/../lib/gcc/arm-eabi/4.6.1/../../../../arm-eabi/lib/thumb\libg.a(lib_a-putc.o) (__swbuf_r)
c:/users/gordon/documents/university/computer_graphics_architecture/dev/devkitpro/devkitarm/bin/../lib/gcc/arm-eabi/4.6.1/../../../../arm-eabi/lib/thumb\libg.a(lib_a-wcrtomb.o)
                              c:/users/gordon/documents/university/computer_graphics_architecture/dev/devkitpro/devkitarm/bin/../lib/gcc/arm-eabi/4.6.1/../../../../arm-eabi/lib/thumb\libg.a(lib_a-svfprintf.o) (_wcrtomb_r)
c:/users/gordon/documents/university/computer_graphics_architecture/dev/devkitpro/devkitarm/bin/../lib/gcc/arm-eabi/4.6.1/../../../../arm-eabi/lib/thumb\libg.a(lib_a-wcsrtombs.o)
                              c:/users/gordon/documents/university/computer_graphics_architecture/dev/devkitpro/devkitarm/bin/../lib/gcc/arm-eabi/4.6.1/../../../../arm-eabi/lib/thumb\libg.a(lib_a-svfprintf.o) (_wcsrtombs_r)
c:/users/gordon/documents/university/computer_graphics_architecture/dev/devkitpro/devkitarm/bin/../lib/gcc/arm-eabi/4.6.1/../../../../arm-eabi/lib/thumb\libg.a(lib_a-wctomb_r.o)
                              c:/users/gordon/documents/university/computer_graphics_architecture/dev/devkitpro/devkitarm/bin/../lib/gcc/arm-eabi/4.6.1/../../../../arm-eabi/lib/thumb\libg.a(lib_a-wcrtomb.o) (__wctomb)
c:/users/gordon/documents/university/computer_graphics_architecture/dev/devkitpro/devkitarm/bin/../lib/gcc/arm-eabi/4.6.1/../../../../arm-eabi/lib/thumb\libg.a(lib_a-wsetup.o)
                              c:/users/gordon/documents/university/computer_graphics_architecture/dev/devkitpro/devkitarm/bin/../lib/gcc/arm-eabi/4.6.1/../../../../arm-eabi/lib/thumb\libg.a(lib_a-fvwrite.o) (__swsetup_r)
c:/users/gordon/documents/university/computer_graphics_architecture/dev/devkitpro/devkitarm/bin/../lib/gcc/arm-eabi/4.6.1/../../../../arm-eabi/lib/thumb\libg.a(lib_a-dtoa.o)
                              c:/users/gordon/documents/university/computer_graphics_architecture/dev/devkitpro/devkitarm/bin/../lib/gcc/arm-eabi/4.6.1/../../../../arm-eabi/lib/thumb\libg.a(lib_a-svfprintf.o) (_dtoa_r)
c:/users/gordon/documents/university/computer_graphics_architecture/dev/devkitpro/devkitarm/bin/../lib/gcc/arm-eabi/4.6.1/../../../../arm-eabi/lib/thumb\libg.a(lib_a-fflush.o)
                              c:/users/gordon/documents/university/computer_graphics_architecture/dev/devkitpro/devkitarm/bin/../lib/gcc/arm-eabi/4.6.1/../../../../arm-eabi/lib/thumb\libg.a(lib_a-fvwrite.o) (_fflush_r)
c:/users/gordon/documents/university/computer_graphics_architecture/dev/devkitpro/devkitarm/bin/../lib/gcc/arm-eabi/4.6.1/../../../../arm-eabi/lib/thumb\libg.a(lib_a-findfp.o)
                              c:/users/gordon/documents/university/computer_graphics_architecture/dev/devkitpro/devkitarm/bin/../lib/gcc/arm-eabi/4.6.1/../../../../arm-eabi/lib/thumb\libg.a(lib_a-fputc.o) (__sinit)
c:/users/gordon/documents/university/computer_graphics_architecture/dev/devkitpro/devkitarm/bin/../lib/gcc/arm-eabi/4.6.1/../../../../arm-eabi/lib/thumb\libg.a(lib_a-freer.o)
                              c:/users/gordon/documents/university/computer_graphics_architecture/dev/devkitpro/devkitarm/bin/../lib/gcc/arm-eabi/4.6.1/../../../../arm-eabi/lib/thumb\libg.a(lib_a-fvwrite.o) (_free_r)
c:/users/gordon/documents/university/computer_graphics_architecture/dev/devkitpro/devkitarm/bin/../lib/gcc/arm-eabi/4.6.1/../../../../arm-eabi/lib/thumb\libg.a(lib_a-fwalk.o)
                              c:/users/gordon/documents/university/computer_graphics_architecture/dev/devkitpro/devkitarm/bin/../lib/gcc/arm-eabi/4.6.1/../../../../arm-eabi/lib/thumb\libg.a(lib_a-findfp.o) (_fwalk)
c:/users/gordon/documents/university/computer_graphics_architecture/dev/devkitpro/devkitarm/bin/../lib/gcc/arm-eabi/4.6.1/../../../../arm-eabi/lib/thumb\libg.a(lib_a-locale.o)
                              c:/users/gordon/documents/university/computer_graphics_architecture/dev/devkitpro/devkitarm/bin/../lib/gcc/arm-eabi/4.6.1/../../../../arm-eabi/lib/thumb\libg.a(lib_a-svfprintf.o) (__locale_charset)
c:/users/gordon/documents/university/computer_graphics_architecture/dev/devkitpro/devkitarm/bin/../lib/gcc/arm-eabi/4.6.1/../../../../arm-eabi/lib/thumb\libg.a(lib_a-makebuf.o)
                              c:/users/gordon/documents/university/computer_graphics_architecture/dev/devkitpro/devkitarm/bin/../lib/gcc/arm-eabi/4.6.1/../../../../arm-eabi/lib/thumb\libg.a(lib_a-wsetup.o) (__smakebuf_r)
c:/users/gordon/documents/university/computer_graphics_architecture/dev/devkitpro/devkitarm/bin/../lib/gcc/arm-eabi/4.6.1/../../../../arm-eabi/lib/thumb\libg.a(lib_a-mbtowc_r.o)
                              c:/users/gordon/documents/university/computer_graphics_architecture/dev/devkitpro/devkitarm/bin/../lib/gcc/arm-eabi/4.6.1/../../../../arm-eabi/lib/thumb\libg.a(lib_a-locale.o) (__utf8_mbtowc)
c:/users/gordon/documents/university/computer_graphics_architecture/dev/devkitpro/devkitarm/bin/../lib/gcc/arm-eabi/4.6.1/../../../../arm-eabi/lib/thumb\libg.a(lib_a-mprec.o)
                              c:/users/gordon/documents/university/computer_graphics_architecture/dev/devkitpro/devkitarm/bin/../lib/gcc/arm-eabi/4.6.1/../../../../arm-eabi/lib/thumb\libg.a(lib_a-dtoa.o) (_Balloc)
c:/users/gordon/documents/university/computer_graphics_architecture/dev/devkitpro/devkitarm/bin/../lib/gcc/arm-eabi/4.6.1/../../../../arm-eabi/lib/thumb\libg.a(lib_a-s_fpclassify.o)
                              c:/users/gordon/documents/university/computer_graphics_architecture/dev/devkitpro/devkitarm/bin/../lib/gcc/arm-eabi/4.6.1/../../../../arm-eabi/lib/thumb\libg.a(lib_a-svfprintf.o) (__fpclassifyd)
c:/users/gordon/documents/university/computer_graphics_architecture/dev/devkitpro/devkitarm/bin/../lib/gcc/arm-eabi/4.6.1/../../../../arm-eabi/lib/thumb\libg.a(lib_a-stdio.o)
                              c:/users/gordon/documents/university/computer_graphics_architecture/dev/devkitpro/devkitarm/bin/../lib/gcc/arm-eabi/4.6.1/../../../../arm-eabi/lib/thumb\libg.a(lib_a-findfp.o) (__sread)
c:/users/gordon/documents/university/computer_graphics_architecture/dev/devkitpro/devkitarm/bin/../lib/gcc/arm-eabi/4.6.1/../../../../arm-eabi/lib/thumb\libg.a(lib_a-strcasecmp.o)
                              c:/users/gordon/documents/university/computer_graphics_architecture/dev/devkitpro/devkitarm/bin/../lib/gcc/arm-eabi/4.6.1/../../../../arm-eabi/lib/thumb\libg.a(lib_a-locale.o) (strcasecmp)
c:/users/gordon/documents/university/computer_graphics_architecture/dev/devkitpro/devkitarm/bin/../lib/gcc/arm-eabi/4.6.1/../../../../arm-eabi/lib/thumb\libg.a(lib_a-strcat.o)
                              c:/users/gordon/documents/university/computer_graphics_architecture/dev/devkitpro/devkitarm/bin/../lib/gcc/arm-eabi/4.6.1/../../../../arm-eabi/lib/thumb\libg.a(lib_a-locale.o) (strcat)
c:/users/gordon/documents/university/computer_graphics_architecture/dev/devkitpro/devkitarm/bin/../lib/gcc/arm-eabi/4.6.1/../../../../arm-eabi/lib/thumb\libg.a(lib_a-strchr.o)
                              c:/users/gordon/documents/university/computer_graphics_architecture/dev/devkitpro/devkitarm/bin/../lib/gcc/arm-eabi/4.6.1/../../../../arm-eabi/lib/thumb\libg.a(lib_a-locale.o) (strchr)
c:/users/gordon/documents/university/computer_graphics_architecture/dev/devkitpro/devkitarm/bin/../lib/gcc/arm-eabi/4.6.1/../../../../arm-eabi/lib/thumb\libg.a(lib_a-strlcpy.o)
                              c:/users/gordon/documents/university/computer_graphics_architecture/dev/devkitpro/devkitarm/bin/../lib/gcc/arm-eabi/4.6.1/../../../../arm-eabi/lib/thumb\libg.a(lib_a-locale.o) (strlcpy)
c:/users/gordon/documents/university/computer_graphics_architecture/dev/devkitpro/devkitarm/bin/../lib/gcc/arm-eabi/4.6.1/../../../../arm-eabi/lib/thumb\libg.a(lib_a-strncasecmp.o)
                              c:/users/gordon/documents/university/computer_graphics_architecture/dev/devkitpro/devkitarm/bin/../lib/gcc/arm-eabi/4.6.1/../../../../arm-eabi/lib/thumb\libg.a(lib_a-locale.o) (strncasecmp)
c:/users/gordon/documents/university/computer_graphics_architecture/dev/devkitpro/devkitarm/bin/../lib/gcc/arm-eabi/4.6.1/../../../../arm-eabi/lib/thumb\libg.a(lib_a-strncpy.o)
                              c:/users/gordon/documents/university/computer_graphics_architecture/dev/devkitpro/devkitarm/bin/../lib/gcc/arm-eabi/4.6.1/../../../../arm-eabi/lib/thumb\libg.a(lib_a-locale.o) (strncpy)
c:/users/gordon/documents/university/computer_graphics_architecture/dev/devkitpro/devkitarm/bin/../lib/gcc/arm-eabi/4.6.1/../../../../arm-eabi/lib/thumb\libg.a(lib_a-strtol.o)
                              c:/users/gordon/documents/university/computer_graphics_architecture/dev/devkitpro/devkitarm/bin/../lib/gcc/arm-eabi/4.6.1/../../../../arm-eabi/lib/thumb\libg.a(lib_a-locale.o) (_strtol_r)
c:/users/gordon/documents/university/computer_graphics_architecture/dev/devkitpro/devkitarm/bin/../lib/gcc/arm-eabi/4.6.1/../../../../arm-eabi/lib/thumb\libg.a(lib_a-svfiprintf.o)
                              c:/users/gordon/documents/university/computer_graphics_architecture/dev/devkitpro/devkitarm/bin/../lib/gcc/arm-eabi/4.6.1/../../../../arm-eabi/lib/thumb\libg.a(lib_a-svfprintf.o) (__ssprint_r)
c:/users/gordon/documents/university/computer_graphics_architecture/dev/devkitpro/devkitarm/bin/../lib/gcc/arm-eabi/4.6.1/../../../../arm-eabi/lib/thumb\libg.a(lib_a-wcsnrtombs.o)
                              c:/users/gordon/documents/university/computer_graphics_architecture/dev/devkitpro/devkitarm/bin/../lib/gcc/arm-eabi/4.6.1/../../../../arm-eabi/lib/thumb\libg.a(lib_a-wcsrtombs.o) (_wcsnrtombs_r)
c:/users/gordon/documents/university/computer_graphics_architecture/dev/devkitpro/devkitarm/bin/../lib/gcc/arm-eabi/4.6.1/../../../../arm-eabi/lib/thumb\libg.a(lib_a-callocr.o)
                              c:/users/gordon/documents/university/computer_graphics_architecture/dev/devkitpro/devkitarm/bin/../lib/gcc/arm-eabi/4.6.1/../../../../arm-eabi/lib/thumb\libg.a(lib_a-mprec.o) (_calloc_r)
c:/users/gordon/documents/university/computer_graphics_architecture/dev/devkitpro/devkitarm/bin/../lib/gcc/arm-eabi/4.6.1/../../../../arm-eabi/lib/thumb\libg.a(lib_a-ctype_.o)
                              c:/users/gordon/documents/university/computer_graphics_architecture/dev/devkitpro/devkitarm/bin/../lib/gcc/arm-eabi/4.6.1/../../../../arm-eabi/lib/thumb\libg.a(lib_a-locale.o) (__set_ctype)
c:/users/gordon/documents/university/computer_graphics_architecture/dev/devkitpro/devkitarm/bin/../lib/gcc/arm-eabi/4.6.1/../../../../arm-eabi/lib/thumb\libg.a(lib_a-fclose.o)
                              c:/users/gordon/documents/university/computer_graphics_architecture/dev/devkitpro/devkitarm/bin/../lib/gcc/arm-eabi/4.6.1/../../../../arm-eabi/lib/thumb\libg.a(lib_a-findfp.o) (fclose)
c:/users/gordon/documents/university/computer_graphics_architecture/dev/devkitpro/devkitarm/bin/../lib/gcc/arm-eabi/4.6.1/../../../../arm-eabi/lib/thumb\libg.a(lib_a-getenv_r.o)
                              c:/users/gordon/documents/university/computer_graphics_architecture/dev/devkitpro/devkitarm/bin/../lib/gcc/arm-eabi/4.6.1/../../../../arm-eabi/lib/thumb\libg.a(lib_a-locale.o) (_getenv_r)
c:/users/gordon/documents/university/computer_graphics_architecture/dev/devkitpro/devkitarm/bin/../lib/gcc/arm-eabi/4.6.1/../../../../arm-eabi/lib/thumb\libg.a(lib_a-environ.o)
                              c:/users/gordon/documents/university/computer_graphics_architecture/dev/devkitpro/devkitarm/bin/../lib/gcc/arm-eabi/4.6.1/../../../../arm-eabi/lib/thumb\libg.a(lib_a-getenv_r.o) (environ)
c:/users/gordon/documents/university/computer_graphics_architecture/dev/devkitpro/devkitarm/bin/../lib/gcc/arm-eabi/4.6.1/../../../../arm-eabi/lib/thumb\libg.a(lib_a-envlock.o)
                              c:/users/gordon/documents/university/computer_graphics_architecture/dev/devkitpro/devkitarm/bin/../lib/gcc/arm-eabi/4.6.1/../../../../arm-eabi/lib/thumb\libg.a(lib_a-getenv_r.o) (__env_lock)
c:/users/gordon/documents/university/computer_graphics_architecture/dev/devkitpro/devkitarm/bin/../lib/gcc/arm-eabi/4.6.1/../../../../arm-eabi/lib/thumb\libsysbase.a(close.o)
                              c:/users/gordon/documents/university/computer_graphics_architecture/dev/devkitpro/devkitarm/bin/../lib/gcc/arm-eabi/4.6.1/../../../../arm-eabi/lib/thumb\libg.a(lib_a-stdio.o) (_close_r)
c:/users/gordon/documents/university/computer_graphics_architecture/dev/devkitpro/devkitarm/bin/../lib/gcc/arm-eabi/4.6.1/../../../../arm-eabi/lib/thumb\libsysbase.a(fstat.o)
                              c:/users/gordon/documents/university/computer_graphics_architecture/dev/devkitpro/devkitarm/bin/../lib/gcc/arm-eabi/4.6.1/../../../../arm-eabi/lib/thumb\libg.a(lib_a-makebuf.o) (_fstat_r)
c:/users/gordon/documents/university/computer_graphics_architecture/dev/devkitpro/devkitarm/bin/../lib/gcc/arm-eabi/4.6.1/../../../../arm-eabi/lib/thumb\libsysbase.a(getpid.o)
                              c:/users/gordon/documents/university/computer_graphics_architecture/dev/devkitpro/devkitarm/bin/../lib/gcc/arm-eabi/4.6.1/../../../../arm-eabi/lib/thumb\libg.a(lib_a-signal.o) (_getpid_r)
c:/users/gordon/documents/university/computer_graphics_architecture/dev/devkitpro/devkitarm/bin/../lib/gcc/arm-eabi/4.6.1/../../../../arm-eabi/lib/thumb\libsysbase.a(isatty.o)
                              c:/users/gordon/documents/university/computer_graphics_architecture/dev/devkitpro/devkitarm/bin/../lib/gcc/arm-eabi/4.6.1/../../../../arm-eabi/lib/thumb\libg.a(lib_a-makebuf.o) (_isatty_r)
c:/users/gordon/documents/university/computer_graphics_architecture/dev/devkitpro/devkitarm/bin/../lib/gcc/arm-eabi/4.6.1/../../../../arm-eabi/lib/thumb\libsysbase.a(kill.o)
                              c:/users/gordon/documents/university/computer_graphics_architecture/dev/devkitpro/devkitarm/bin/../lib/gcc/arm-eabi/4.6.1/../../../../arm-eabi/lib/thumb\libg.a(lib_a-signal.o) (_kill_r)
c:/users/gordon/documents/university/computer_graphics_architecture/dev/devkitpro/devkitarm/bin/../lib/gcc/arm-eabi/4.6.1/../../../../arm-eabi/lib/thumb\libsysbase.a(lseek.o)
                              c:/users/gordon/documents/university/computer_graphics_architecture/dev/devkitpro/devkitarm/bin/../lib/gcc/arm-eabi/4.6.1/../../../../arm-eabi/lib/thumb\libg.a(lib_a-stdio.o) (_lseek_r)
c:/users/gordon/documents/university/computer_graphics_architecture/dev/devkitpro/devkitarm/bin/../lib/gcc/arm-eabi/4.6.1/../../../../arm-eabi/lib/thumb\libsysbase.a(read.o)
                              c:/users/gordon/documents/university/computer_graphics_architecture/dev/devkitpro/devkitarm/bin/../lib/gcc/arm-eabi/4.6.1/../../../../arm-eabi/lib/thumb\libg.a(lib_a-stdio.o) (_read_r)
c:/users/gordon/documents/university/computer_graphics_architecture/dev/devkitpro/devkitarm/bin/../lib/gcc/arm-eabi/4.6.1/../../../../arm-eabi/lib/thumb\libsysbase.a(sbrk.o)
                              c:/users/gordon/documents/university/computer_graphics_architecture/dev/devkitpro/devkitarm/bin/../lib/gcc/arm-eabi/4.6.1/../../../../arm-eabi/lib/thumb\libg.a(lib_a-mallocr.o) (_sbrk_r)
c:/users/gordon/documents/university/computer_graphics_architecture/dev/devkitpro/devkitarm/bin/../lib/gcc/arm-eabi/4.6.1/../../../../arm-eabi/lib/thumb\libsysbase.a(write.o)
                              c:/users/gordon/documents/university/computer_graphics_architecture/dev/devkitpro/devkitarm/bin/../lib/gcc/arm-eabi/4.6.1/../../../../arm-eabi/lib/thumb\libg.a(lib_a-syswrite.o) (_write_r)
c:/users/gordon/documents/university/computer_graphics_architecture/dev/devkitpro/devkitarm/bin/../lib/gcc/arm-eabi/4.6.1/../../../../arm-eabi/lib/thumb\libsysbase.a(_exit.o)
                              c:/users/gordon/documents/university/computer_graphics_architecture/dev/devkitpro/devkitarm/bin/../lib/gcc/arm-eabi/4.6.1/../../../../arm-eabi/lib/thumb\libg.a(lib_a-abort.o) (_exit)
c:/users/gordon/documents/university/computer_graphics_architecture/dev/devkitpro/devkitarm/bin/../lib/gcc/arm-eabi/4.6.1/../../../../arm-eabi/lib/thumb\libsysbase.a(malloc_vars.o)
                              c:/users/gordon/documents/university/computer_graphics_architecture/dev/devkitpro/devkitarm/bin/../lib/gcc/arm-eabi/4.6.1/../../../../arm-eabi/lib/thumb\libsysbase.a(sbrk.o) (fake_heap_start)
c:/users/gordon/documents/university/computer_graphics_architecture/dev/devkitpro/devkitarm/bin/../lib/gcc/arm-eabi/4.6.1/../../../../arm-eabi/lib/thumb\libsysbase.a(syscall_support.o)
                              c:/users/gordon/documents/university/computer_graphics_architecture/dev/devkitpro/devkitarm/bin/../lib/gcc/arm-eabi/4.6.1/../../../../arm-eabi/lib/thumb\libsysbase.a(_exit.o) (__syscalls)
c:/users/gordon/documents/university/computer_graphics_architecture/dev/devkitpro/devkitarm/bin/../lib/gcc/arm-eabi/4.6.1/../../../../arm-eabi/lib/thumb\libsysbase.a(handle_manager.o)
                              c:/users/gordon/documents/university/computer_graphics_architecture/dev/devkitpro/devkitarm/bin/../lib/gcc/arm-eabi/4.6.1/../../../../arm-eabi/lib/thumb\libsysbase.a(close.o) (__release_handle)
c:/users/gordon/documents/university/computer_graphics_architecture/dev/devkitpro/devkitarm/bin/../lib/gcc/arm-eabi/4.6.1/../../../../arm-eabi/lib/thumb\libsysbase.a(iosupport.o)
                              c:/users/gordon/documents/university/computer_graphics_architecture/dev/devkitpro/devkitarm/bin/../lib/gcc/arm-eabi/4.6.1/../../../../arm-eabi/lib/thumb\libsysbase.a(close.o) (devoptab_list)
c:/users/gordon/documents/university/computer_graphics_architecture/dev/devkitpro/devkitarm/bin/../lib/gcc/arm-eabi/4.6.1/thumb\libgcc.a(_divsi3.o)
                              c:/users/gordon/documents/university/computer_graphics_architecture/dev/devkitpro/devkitarm/bin/../lib/gcc/arm-eabi/4.6.1/../../../../arm-eabi/lib/thumb\libg.a(lib_a-svfprintf.o) (__aeabi_idiv)
c:/users/gordon/documents/university/computer_graphics_architecture/dev/devkitpro/devkitarm/bin/../lib/gcc/arm-eabi/4.6.1/thumb\libgcc.a(_arm_addsubdf3.o)
                              c:/users/gordon/documents/university/computer_graphics_architecture/dev/devkitpro/devkitarm/bin/../lib/gcc/arm-eabi/4.6.1/../../../../arm-eabi/lib/thumb\libg.a(lib_a-dtoa.o) (__aeabi_dsub)
c:/users/gordon/documents/university/computer_graphics_architecture/dev/devkitpro/devkitarm/bin/../lib/gcc/arm-eabi/4.6.1/thumb\libgcc.a(_arm_muldivdf3.o)
                              c:/users/gordon/documents/university/computer_graphics_architecture/dev/devkitpro/devkitarm/bin/../lib/gcc/arm-eabi/4.6.1/../../../../arm-eabi/lib/thumb\libg.a(lib_a-dtoa.o) (__aeabi_dmul)
c:/users/gordon/documents/university/computer_graphics_architecture/dev/devkitpro/devkitarm/bin/../lib/gcc/arm-eabi/4.6.1/thumb\libgcc.a(_arm_cmpdf2.o)
                              c:/users/gordon/documents/university/computer_graphics_architecture/dev/devkitpro/devkitarm/bin/../lib/gcc/arm-eabi/4.6.1/../../../../arm-eabi/lib/thumb\libg.a(lib_a-svfprintf.o) (__aeabi_dcmpeq)
c:/users/gordon/documents/university/computer_graphics_architecture/dev/devkitpro/devkitarm/bin/../lib/gcc/arm-eabi/4.6.1/thumb\libgcc.a(_arm_fixdfsi.o)
                              c:/users/gordon/documents/university/computer_graphics_architecture/dev/devkitpro/devkitarm/bin/../lib/gcc/arm-eabi/4.6.1/../../../../arm-eabi/lib/thumb\libg.a(lib_a-dtoa.o) (__aeabi_d2iz)
c:/users/gordon/documents/university/computer_graphics_architecture/dev/devkitpro/devkitarm/bin/../lib/gcc/arm-eabi/4.6.1/thumb\libgcc.a(_aeabi_uldivmod.o)
                              c:/users/gordon/documents/university/computer_graphics_architecture/dev/devkitpro/devkitarm/bin/../lib/gcc/arm-eabi/4.6.1/../../../../arm-eabi/lib/thumb\libg.a(lib_a-svfprintf.o) (__aeabi_uldivmod)
c:/users/gordon/documents/university/computer_graphics_architecture/dev/devkitpro/devkitarm/bin/../lib/gcc/arm-eabi/4.6.1/thumb\libgcc.a(bpabi.o)
                              c:/users/gordon/documents/university/computer_graphics_architecture/dev/devkitpro/devkitarm/bin/../lib/gcc/arm-eabi/4.6.1/thumb\libgcc.a(_aeabi_uldivmod.o) (__gnu_uldivmod_helper)
c:/users/gordon/documents/university/computer_graphics_architecture/dev/devkitpro/devkitarm/bin/../lib/gcc/arm-eabi/4.6.1/thumb\libgcc.a(_muldi3.o)
                              c:/users/gordon/documents/university/computer_graphics_architecture/dev/devkitpro/devkitarm/bin/../lib/gcc/arm-eabi/4.6.1/thumb\libgcc.a(bpabi.o) (__aeabi_lmul)
c:/users/gordon/documents/university/computer_graphics_architecture/dev/devkitpro/devkitarm/bin/../lib/gcc/arm-eabi/4.6.1/thumb\libgcc.a(_divdi3.o)
                              c:/users/gordon/documents/university/computer_graphics_architecture/dev/devkitpro/devkitarm/bin/../lib/gcc/arm-eabi/4.6.1/thumb\libgcc.a(bpabi.o) (__divdi3)
c:/users/gordon/documents/university/computer_graphics_architecture/dev/devkitpro/devkitarm/bin/../lib/gcc/arm-eabi/4.6.1/thumb\libgcc.a(_udivdi3.o)
                              c:/users/gordon/documents/university/computer_graphics_architecture/dev/devkitpro/devkitarm/bin/../lib/gcc/arm-eabi/4.6.1/thumb\libgcc.a(bpabi.o) (__udivdi3)
c:/users/gordon/documents/university/computer_graphics_architecture/dev/devkitpro/devkitarm/bin/../lib/gcc/arm-eabi/4.6.1/thumb\libgcc.a(_clzsi2.o)
                              c:/users/gordon/documents/university/computer_graphics_architecture/dev/devkitpro/devkitarm/bin/../lib/gcc/arm-eabi/4.6.1/thumb\libgcc.a(_divdi3.o) (__clzsi2)

Discarded input sections

 .group         0x00000000        0x8 c:/users/gordon/documents/university/computer_graphics_architecture/dev/devkitpro/devkitarm/bin/../lib/gcc/arm-eabi/4.6.1/../../../../arm-eabi/lib/thumb\libstdc++.a(fundamental_type_info.o)
 .group         0x00000000        0x8 c:/users/gordon/documents/university/computer_graphics_architecture/dev/devkitpro/devkitarm/bin/../lib/gcc/arm-eabi/4.6.1/../../../../arm-eabi/lib/thumb\libstdc++.a(fundamental_type_info.o)
 .group         0x00000000        0x8 c:/users/gordon/documents/university/computer_graphics_architecture/dev/devkitpro/devkitarm/bin/../lib/gcc/arm-eabi/4.6.1/../../../../arm-eabi/lib/thumb\libstdc++.a(fundamental_type_info.o)
 .group         0x00000000        0x8 c:/users/gordon/documents/university/computer_graphics_architecture/dev/devkitpro/devkitarm/bin/../lib/gcc/arm-eabi/4.6.1/../../../../arm-eabi/lib/thumb\libstdc++.a(fundamental_type_info.o)
 .group         0x00000000        0x8 c:/users/gordon/documents/university/computer_graphics_architecture/dev/devkitpro/devkitarm/bin/../lib/gcc/arm-eabi/4.6.1/../../../../arm-eabi/lib/thumb\libstdc++.a(fundamental_type_info.o)
 .group         0x00000000        0x8 c:/users/gordon/documents/university/computer_graphics_architecture/dev/devkitpro/devkitarm/bin/../lib/gcc/arm-eabi/4.6.1/../../../../arm-eabi/lib/thumb\libstdc++.a(fundamental_type_info.o)
 .group         0x00000000        0x8 c:/users/gordon/documents/university/computer_graphics_architecture/dev/devkitpro/devkitarm/bin/../lib/gcc/arm-eabi/4.6.1/../../../../arm-eabi/lib/thumb\libstdc++.a(fundamental_type_info.o)
 .group         0x00000000        0x8 c:/users/gordon/documents/university/computer_graphics_architecture/dev/devkitpro/devkitarm/bin/../lib/gcc/arm-eabi/4.6.1/../../../../arm-eabi/lib/thumb\libstdc++.a(fundamental_type_info.o)
 .group         0x00000000        0x8 c:/users/gordon/documents/university/computer_graphics_architecture/dev/devkitpro/devkitarm/bin/../lib/gcc/arm-eabi/4.6.1/../../../../arm-eabi/lib/thumb\libstdc++.a(fundamental_type_info.o)
 .group         0x00000000        0x8 c:/users/gordon/documents/university/computer_graphics_architecture/dev/devkitpro/devkitarm/bin/../lib/gcc/arm-eabi/4.6.1/../../../../arm-eabi/lib/thumb\libstdc++.a(fundamental_type_info.o)
 .group         0x00000000        0x8 c:/users/gordon/documents/university/computer_graphics_architecture/dev/devkitpro/devkitarm/bin/../lib/gcc/arm-eabi/4.6.1/../../../../arm-eabi/lib/thumb\libstdc++.a(fundamental_type_info.o)
 .group         0x00000000        0x8 c:/users/gordon/documents/university/computer_graphics_architecture/dev/devkitpro/devkitarm/bin/../lib/gcc/arm-eabi/4.6.1/../../../../arm-eabi/lib/thumb\libstdc++.a(fundamental_type_info.o)
 .group         0x00000000        0x8 c:/users/gordon/documents/university/computer_graphics_architecture/dev/devkitpro/devkitarm/bin/../lib/gcc/arm-eabi/4.6.1/../../../../arm-eabi/lib/thumb\libstdc++.a(fundamental_type_info.o)
 .group         0x00000000        0x8 c:/users/gordon/documents/university/computer_graphics_architecture/dev/devkitpro/devkitarm/bin/../lib/gcc/arm-eabi/4.6.1/../../../../arm-eabi/lib/thumb\libstdc++.a(fundamental_type_info.o)
 .group         0x00000000        0x8 c:/users/gordon/documents/university/computer_graphics_architecture/dev/devkitpro/devkitarm/bin/../lib/gcc/arm-eabi/4.6.1/../../../../arm-eabi/lib/thumb\libstdc++.a(fundamental_type_info.o)
 .group         0x00000000        0x8 c:/users/gordon/documents/university/computer_graphics_architecture/dev/devkitpro/devkitarm/bin/../lib/gcc/arm-eabi/4.6.1/../../../../arm-eabi/lib/thumb\libstdc++.a(fundamental_type_info.o)
 .group         0x00000000        0x8 c:/users/gordon/documents/university/computer_graphics_architecture/dev/devkitpro/devkitarm/bin/../lib/gcc/arm-eabi/4.6.1/../../../../arm-eabi/lib/thumb\libstdc++.a(fundamental_type_info.o)
 .group         0x00000000        0x8 c:/users/gordon/documents/university/computer_graphics_architecture/dev/devkitpro/devkitarm/bin/../lib/gcc/arm-eabi/4.6.1/../../../../arm-eabi/lib/thumb\libstdc++.a(fundamental_type_info.o)
 .group         0x00000000        0x8 c:/users/gordon/documents/university/computer_graphics_architecture/dev/devkitpro/devkitarm/bin/../lib/gcc/arm-eabi/4.6.1/../../../../arm-eabi/lib/thumb\libstdc++.a(fundamental_type_info.o)
 .group         0x00000000        0x8 c:/users/gordon/documents/university/computer_graphics_architecture/dev/devkitpro/devkitarm/bin/../lib/gcc/arm-eabi/4.6.1/../../../../arm-eabi/lib/thumb\libstdc++.a(fundamental_type_info.o)
 .group         0x00000000        0x8 c:/users/gordon/documents/university/computer_graphics_architecture/dev/devkitpro/devkitarm/bin/../lib/gcc/arm-eabi/4.6.1/../../../../arm-eabi/lib/thumb\libstdc++.a(fundamental_type_info.o)
 .group         0x00000000        0x8 c:/users/gordon/documents/university/computer_graphics_architecture/dev/devkitpro/devkitarm/bin/../lib/gcc/arm-eabi/4.6.1/../../../../arm-eabi/lib/thumb\libstdc++.a(fundamental_type_info.o)
 .group         0x00000000        0x8 c:/users/gordon/documents/university/computer_graphics_architecture/dev/devkitpro/devkitarm/bin/../lib/gcc/arm-eabi/4.6.1/../../../../arm-eabi/lib/thumb\libstdc++.a(fundamental_type_info.o)
 .group         0x00000000        0x8 c:/users/gordon/documents/university/computer_graphics_architecture/dev/devkitpro/devkitarm/bin/../lib/gcc/arm-eabi/4.6.1/../../../../arm-eabi/lib/thumb\libstdc++.a(fundamental_type_info.o)
 .group         0x00000000        0x8 c:/users/gordon/documents/university/computer_graphics_architecture/dev/devkitpro/devkitarm/bin/../lib/gcc/arm-eabi/4.6.1/../../../../arm-eabi/lib/thumb\libstdc++.a(fundamental_type_info.o)
 .group         0x00000000        0x8 c:/users/gordon/documents/university/computer_graphics_architecture/dev/devkitpro/devkitarm/bin/../lib/gcc/arm-eabi/4.6.1/../../../../arm-eabi/lib/thumb\libstdc++.a(fundamental_type_info.o)
 .group         0x00000000        0x8 c:/users/gordon/documents/university/computer_graphics_architecture/dev/devkitpro/devkitarm/bin/../lib/gcc/arm-eabi/4.6.1/../../../../arm-eabi/lib/thumb\libstdc++.a(fundamental_type_info.o)
 .group         0x00000000        0x8 c:/users/gordon/documents/university/computer_graphics_architecture/dev/devkitpro/devkitarm/bin/../lib/gcc/arm-eabi/4.6.1/../../../../arm-eabi/lib/thumb\libstdc++.a(fundamental_type_info.o)
 .group         0x00000000        0x8 c:/users/gordon/documents/university/computer_graphics_architecture/dev/devkitpro/devkitarm/bin/../lib/gcc/arm-eabi/4.6.1/../../../../arm-eabi/lib/thumb\libstdc++.a(fundamental_type_info.o)
 .group         0x00000000        0x8 c:/users/gordon/documents/university/computer_graphics_architecture/dev/devkitpro/devkitarm/bin/../lib/gcc/arm-eabi/4.6.1/../../../../arm-eabi/lib/thumb\libstdc++.a(fundamental_type_info.o)
 .group         0x00000000        0x8 c:/users/gordon/documents/university/computer_graphics_architecture/dev/devkitpro/devkitarm/bin/../lib/gcc/arm-eabi/4.6.1/../../../../arm-eabi/lib/thumb\libstdc++.a(fundamental_type_info.o)
 .group         0x00000000        0x8 c:/users/gordon/documents/university/computer_graphics_architecture/dev/devkitpro/devkitarm/bin/../lib/gcc/arm-eabi/4.6.1/../../../../arm-eabi/lib/thumb\libstdc++.a(fundamental_type_info.o)
 .group         0x00000000        0x8 c:/users/gordon/documents/university/computer_graphics_architecture/dev/devkitpro/devkitarm/bin/../lib/gcc/arm-eabi/4.6.1/../../../../arm-eabi/lib/thumb\libstdc++.a(fundamental_type_info.o)
 .group         0x00000000        0x8 c:/users/gordon/documents/university/computer_graphics_architecture/dev/devkitpro/devkitarm/bin/../lib/gcc/arm-eabi/4.6.1/../../../../arm-eabi/lib/thumb\libstdc++.a(fundamental_type_info.o)
 .group         0x00000000        0x8 c:/users/gordon/documents/university/computer_graphics_architecture/dev/devkitpro/devkitarm/bin/../lib/gcc/arm-eabi/4.6.1/../../../../arm-eabi/lib/thumb\libstdc++.a(fundamental_type_info.o)
 .group         0x00000000        0x8 c:/users/gordon/documents/university/computer_graphics_architecture/dev/devkitpro/devkitarm/bin/../lib/gcc/arm-eabi/4.6.1/../../../../arm-eabi/lib/thumb\libstdc++.a(fundamental_type_info.o)
 .group         0x00000000        0x8 c:/users/gordon/documents/university/computer_graphics_architecture/dev/devkitpro/devkitarm/bin/../lib/gcc/arm-eabi/4.6.1/../../../../arm-eabi/lib/thumb\libstdc++.a(fundamental_type_info.o)
 .group         0x00000000        0x8 c:/users/gordon/documents/university/computer_graphics_architecture/dev/devkitpro/devkitarm/bin/../lib/gcc/arm-eabi/4.6.1/../../../../arm-eabi/lib/thumb\libstdc++.a(fundamental_type_info.o)
 .group         0x00000000        0x8 c:/users/gordon/documents/university/computer_graphics_architecture/dev/devkitpro/devkitarm/bin/../lib/gcc/arm-eabi/4.6.1/../../../../arm-eabi/lib/thumb\libstdc++.a(fundamental_type_info.o)
 .group         0x00000000        0x8 c:/users/gordon/documents/university/computer_graphics_architecture/dev/devkitpro/devkitarm/bin/../lib/gcc/arm-eabi/4.6.1/../../../../arm-eabi/lib/thumb\libstdc++.a(fundamental_type_info.o)
 .group         0x00000000        0x8 c:/users/gordon/documents/university/computer_graphics_architecture/dev/devkitpro/devkitarm/bin/../lib/gcc/arm-eabi/4.6.1/../../../../arm-eabi/lib/thumb\libstdc++.a(fundamental_type_info.o)
 .group         0x00000000        0x8 c:/users/gordon/documents/university/computer_graphics_architecture/dev/devkitpro/devkitarm/bin/../lib/gcc/arm-eabi/4.6.1/../../../../arm-eabi/lib/thumb\libstdc++.a(fundamental_type_info.o)
 .group         0x00000000        0x8 c:/users/gordon/documents/university/computer_graphics_architecture/dev/devkitpro/devkitarm/bin/../lib/gcc/arm-eabi/4.6.1/../../../../arm-eabi/lib/thumb\libstdc++.a(fundamental_type_info.o)
 .group         0x00000000        0x8 c:/users/gordon/documents/university/computer_graphics_architecture/dev/devkitpro/devkitarm/bin/../lib/gcc/arm-eabi/4.6.1/../../../../arm-eabi/lib/thumb\libstdc++.a(fundamental_type_info.o)
 .group         0x00000000        0x8 c:/users/gordon/documents/university/computer_graphics_architecture/dev/devkitpro/devkitarm/bin/../lib/gcc/arm-eabi/4.6.1/../../../../arm-eabi/lib/thumb\libstdc++.a(fundamental_type_info.o)
 .group         0x00000000        0x8 c:/users/gordon/documents/university/computer_graphics_architecture/dev/devkitpro/devkitarm/bin/../lib/gcc/arm-eabi/4.6.1/../../../../arm-eabi/lib/thumb\libstdc++.a(fundamental_type_info.o)
 .group         0x00000000        0x8 c:/users/gordon/documents/university/computer_graphics_architecture/dev/devkitpro/devkitarm/bin/../lib/gcc/arm-eabi/4.6.1/../../../../arm-eabi/lib/thumb\libstdc++.a(fundamental_type_info.o)
 .group         0x00000000        0x8 c:/users/gordon/documents/university/computer_graphics_architecture/dev/devkitpro/devkitarm/bin/../lib/gcc/arm-eabi/4.6.1/../../../../arm-eabi/lib/thumb\libstdc++.a(fundamental_type_info.o)
 .group         0x00000000        0x8 c:/users/gordon/documents/university/computer_graphics_architecture/dev/devkitpro/devkitarm/bin/../lib/gcc/arm-eabi/4.6.1/../../../../arm-eabi/lib/thumb\libstdc++.a(fundamental_type_info.o)
 .group         0x00000000        0x8 c:/users/gordon/documents/university/computer_graphics_architecture/dev/devkitpro/devkitarm/bin/../lib/gcc/arm-eabi/4.6.1/../../../../arm-eabi/lib/thumb\libstdc++.a(fundamental_type_info.o)
 .group         0x00000000        0x8 c:/users/gordon/documents/university/computer_graphics_architecture/dev/devkitpro/devkitarm/bin/../lib/gcc/arm-eabi/4.6.1/../../../../arm-eabi/lib/thumb\libstdc++.a(fundamental_type_info.o)
 .group         0x00000000        0x8 c:/users/gordon/documents/university/computer_graphics_architecture/dev/devkitpro/devkitarm/bin/../lib/gcc/arm-eabi/4.6.1/../../../../arm-eabi/lib/thumb\libstdc++.a(fundamental_type_info.o)
 .group         0x00000000        0x8 c:/users/gordon/documents/university/computer_graphics_architecture/dev/devkitpro/devkitarm/bin/../lib/gcc/arm-eabi/4.6.1/../../../../arm-eabi/lib/thumb\libstdc++.a(fundamental_type_info.o)
 .group         0x00000000        0x8 c:/users/gordon/documents/university/computer_graphics_architecture/dev/devkitpro/devkitarm/bin/../lib/gcc/arm-eabi/4.6.1/../../../../arm-eabi/lib/thumb\libstdc++.a(fundamental_type_info.o)
 .group         0x00000000        0x8 c:/users/gordon/documents/university/computer_graphics_architecture/dev/devkitpro/devkitarm/bin/../lib/gcc/arm-eabi/4.6.1/../../../../arm-eabi/lib/thumb\libstdc++.a(fundamental_type_info.o)
 .group         0x00000000        0x8 c:/users/gordon/documents/university/computer_graphics_architecture/dev/devkitpro/devkitarm/bin/../lib/gcc/arm-eabi/4.6.1/../../../../arm-eabi/lib/thumb\libstdc++.a(fundamental_type_info.o)
 .group         0x00000000        0x8 c:/users/gordon/documents/university/computer_graphics_architecture/dev/devkitpro/devkitarm/bin/../lib/gcc/arm-eabi/4.6.1/../../../../arm-eabi/lib/thumb\libstdc++.a(fundamental_type_info.o)
 .group         0x00000000        0x8 c:/users/gordon/documents/university/computer_graphics_architecture/dev/devkitpro/devkitarm/bin/../lib/gcc/arm-eabi/4.6.1/../../../../arm-eabi/lib/thumb\libstdc++.a(fundamental_type_info.o)
 .group         0x00000000        0x8 c:/users/gordon/documents/university/computer_graphics_architecture/dev/devkitpro/devkitarm/bin/../lib/gcc/arm-eabi/4.6.1/../../../../arm-eabi/lib/thumb\libstdc++.a(fundamental_type_info.o)
 .group         0x00000000        0x8 c:/users/gordon/documents/university/computer_graphics_architecture/dev/devkitpro/devkitarm/bin/../lib/gcc/arm-eabi/4.6.1/../../../../arm-eabi/lib/thumb\libstdc++.a(fundamental_type_info.o)
 .group         0x00000000        0x8 c:/users/gordon/documents/university/computer_graphics_architecture/dev/devkitpro/devkitarm/bin/../lib/gcc/arm-eabi/4.6.1/../../../../arm-eabi/lib/thumb\libstdc++.a(fundamental_type_info.o)
 .group         0x00000000        0x8 c:/users/gordon/documents/university/computer_graphics_architecture/dev/devkitpro/devkitarm/bin/../lib/gcc/arm-eabi/4.6.1/../../../../arm-eabi/lib/thumb\libstdc++.a(fundamental_type_info.o)
 .group         0x00000000        0x8 c:/users/gordon/documents/university/computer_graphics_architecture/dev/devkitpro/devkitarm/bin/../lib/gcc/arm-eabi/4.6.1/../../../../arm-eabi/lib/thumb\libstdc++.a(fundamental_type_info.o)
 .group         0x00000000        0x8 c:/users/gordon/documents/university/computer_graphics_architecture/dev/devkitpro/devkitarm/bin/../lib/gcc/arm-eabi/4.6.1/../../../../arm-eabi/lib/thumb\libstdc++.a(fundamental_type_info.o)
 .group         0x00000000        0x8 c:/users/gordon/documents/university/computer_graphics_architecture/dev/devkitpro/devkitarm/bin/../lib/gcc/arm-eabi/4.6.1/../../../../arm-eabi/lib/thumb\libstdc++.a(fundamental_type_info.o)
 .group         0x00000000        0x8 c:/users/gordon/documents/university/computer_graphics_architecture/dev/devkitpro/devkitarm/bin/../lib/gcc/arm-eabi/4.6.1/../../../../arm-eabi/lib/thumb\libstdc++.a(fundamental_type_info.o)
 .group         0x00000000        0x8 c:/users/gordon/documents/university/computer_graphics_architecture/dev/devkitpro/devkitarm/bin/../lib/gcc/arm-eabi/4.6.1/../../../../arm-eabi/lib/thumb\libstdc++.a(fundamental_type_info.o)
 .group         0x00000000        0x8 c:/users/gordon/documents/university/computer_graphics_architecture/dev/devkitpro/devkitarm/bin/../lib/gcc/arm-eabi/4.6.1/../../../../arm-eabi/lib/thumb\libstdc++.a(fundamental_type_info.o)
 .group         0x00000000        0x8 c:/users/gordon/documents/university/computer_graphics_architecture/dev/devkitpro/devkitarm/bin/../lib/gcc/arm-eabi/4.6.1/../../../../arm-eabi/lib/thumb\libstdc++.a(fundamental_type_info.o)
 .group         0x00000000        0x8 c:/users/gordon/documents/university/computer_graphics_architecture/dev/devkitpro/devkitarm/bin/../lib/gcc/arm-eabi/4.6.1/../../../../arm-eabi/lib/thumb\libstdc++.a(fundamental_type_info.o)
 .group         0x00000000        0x8 c:/users/gordon/documents/university/computer_graphics_architecture/dev/devkitpro/devkitarm/bin/../lib/gcc/arm-eabi/4.6.1/../../../../arm-eabi/lib/thumb\libstdc++.a(fundamental_type_info.o)
 .group         0x00000000        0x8 c:/users/gordon/documents/university/computer_graphics_architecture/dev/devkitpro/devkitarm/bin/../lib/gcc/arm-eabi/4.6.1/../../../../arm-eabi/lib/thumb\libstdc++.a(fundamental_type_info.o)
 .group         0x00000000        0x8 c:/users/gordon/documents/university/computer_graphics_architecture/dev/devkitpro/devkitarm/bin/../lib/gcc/arm-eabi/4.6.1/../../../../arm-eabi/lib/thumb\libstdc++.a(fundamental_type_info.o)
 .group         0x00000000        0x8 c:/users/gordon/documents/university/computer_graphics_architecture/dev/devkitpro/devkitarm/bin/../lib/gcc/arm-eabi/4.6.1/../../../../arm-eabi/lib/thumb\libstdc++.a(fundamental_type_info.o)
 .group         0x00000000        0x8 c:/users/gordon/documents/university/computer_graphics_architecture/dev/devkitpro/devkitarm/bin/../lib/gcc/arm-eabi/4.6.1/../../../../arm-eabi/lib/thumb\libstdc++.a(fundamental_type_info.o)
 .group         0x00000000        0x8 c:/users/gordon/documents/university/computer_graphics_architecture/dev/devkitpro/devkitarm/bin/../lib/gcc/arm-eabi/4.6.1/../../../../arm-eabi/lib/thumb\libstdc++.a(fundamental_type_info.o)
 .group         0x00000000        0x8 c:/users/gordon/documents/university/computer_graphics_architecture/dev/devkitpro/devkitarm/bin/../lib/gcc/arm-eabi/4.6.1/../../../../arm-eabi/lib/thumb\libstdc++.a(fundamental_type_info.o)
 .group         0x00000000        0x8 c:/users/gordon/documents/university/computer_graphics_architecture/dev/devkitpro/devkitarm/bin/../lib/gcc/arm-eabi/4.6.1/../../../../arm-eabi/lib/thumb\libstdc++.a(fundamental_type_info.o)
 .group         0x00000000        0x8 c:/users/gordon/documents/university/computer_graphics_architecture/dev/devkitpro/devkitarm/bin/../lib/gcc/arm-eabi/4.6.1/../../../../arm-eabi/lib/thumb\libstdc++.a(fundamental_type_info.o)
 .group         0x00000000        0x8 c:/users/gordon/documents/university/computer_graphics_architecture/dev/devkitpro/devkitarm/bin/../lib/gcc/arm-eabi/4.6.1/../../../../arm-eabi/lib/thumb\libstdc++.a(fundamental_type_info.o)
 .group         0x00000000        0x8 c:/users/gordon/documents/university/computer_graphics_architecture/dev/devkitpro/devkitarm/bin/../lib/gcc/arm-eabi/4.6.1/../../../../arm-eabi/lib/thumb\libstdc++.a(fundamental_type_info.o)
 .group         0x00000000        0x8 c:/users/gordon/documents/university/computer_graphics_architecture/dev/devkitpro/devkitarm/bin/../lib/gcc/arm-eabi/4.6.1/../../../../arm-eabi/lib/thumb\libstdc++.a(fundamental_type_info.o)
 .group         0x00000000        0x8 c:/users/gordon/documents/university/computer_graphics_architecture/dev/devkitpro/devkitarm/bin/../lib/gcc/arm-eabi/4.6.1/../../../../arm-eabi/lib/thumb\libstdc++.a(fundamental_type_info.o)
 .group         0x00000000        0x8 c:/users/gordon/documents/university/computer_graphics_architecture/dev/devkitpro/devkitarm/bin/../lib/gcc/arm-eabi/4.6.1/../../../../arm-eabi/lib/thumb\libstdc++.a(fundamental_type_info.o)
 .group         0x00000000        0x8 c:/users/gordon/documents/university/computer_graphics_architecture/dev/devkitpro/devkitarm/bin/../lib/gcc/arm-eabi/4.6.1/../../../../arm-eabi/lib/thumb\libstdc++.a(fundamental_type_info.o)
 .group         0x00000000        0x8 c:/users/gordon/documents/university/computer_graphics_architecture/dev/devkitpro/devkitarm/bin/../lib/gcc/arm-eabi/4.6.1/../../../../arm-eabi/lib/thumb\libstdc++.a(fundamental_type_info.o)
 .group         0x00000000        0x8 c:/users/gordon/documents/university/computer_graphics_architecture/dev/devkitpro/devkitarm/bin/../lib/gcc/arm-eabi/4.6.1/../../../../arm-eabi/lib/thumb\libstdc++.a(fundamental_type_info.o)
 .group         0x00000000        0x8 c:/users/gordon/documents/university/computer_graphics_architecture/dev/devkitpro/devkitarm/bin/../lib/gcc/arm-eabi/4.6.1/../../../../arm-eabi/lib/thumb\libstdc++.a(fundamental_type_info.o)
 .group         0x00000000        0x8 c:/users/gordon/documents/university/computer_graphics_architecture/dev/devkitpro/devkitarm/bin/../lib/gcc/arm-eabi/4.6.1/../../../../arm-eabi/lib/thumb\libstdc++.a(fundamental_type_info.o)
 .group         0x00000000        0x8 c:/users/gordon/documents/university/computer_graphics_architecture/dev/devkitpro/devkitarm/bin/../lib/gcc/arm-eabi/4.6.1/../../../../arm-eabi/lib/thumb\libstdc++.a(fundamental_type_info.o)
 .group         0x00000000        0x8 c:/users/gordon/documents/university/computer_graphics_architecture/dev/devkitpro/devkitarm/bin/../lib/gcc/arm-eabi/4.6.1/../../../../arm-eabi/lib/thumb\libstdc++.a(fundamental_type_info.o)
 .group         0x00000000        0x8 c:/users/gordon/documents/university/computer_graphics_architecture/dev/devkitpro/devkitarm/bin/../lib/gcc/arm-eabi/4.6.1/../../../../arm-eabi/lib/thumb\libstdc++.a(fundamental_type_info.o)
 .group         0x00000000        0x8 c:/users/gordon/documents/university/computer_graphics_architecture/dev/devkitpro/devkitarm/bin/../lib/gcc/arm-eabi/4.6.1/../../../../arm-eabi/lib/thumb\libstdc++.a(fundamental_type_info.o)
 .group         0x00000000        0x8 c:/users/gordon/documents/university/computer_graphics_architecture/dev/devkitpro/devkitarm/bin/../lib/gcc/arm-eabi/4.6.1/../../../../arm-eabi/lib/thumb\libstdc++.a(fundamental_type_info.o)
 .group         0x00000000        0x8 c:/users/gordon/documents/university/computer_graphics_architecture/dev/devkitpro/devkitarm/bin/../lib/gcc/arm-eabi/4.6.1/../../../../arm-eabi/lib/thumb\libstdc++.a(fundamental_type_info.o)
 .group         0x00000000        0x8 c:/users/gordon/documents/university/computer_graphics_architecture/dev/devkitpro/devkitarm/bin/../lib/gcc/arm-eabi/4.6.1/../../../../arm-eabi/lib/thumb\libstdc++.a(fundamental_type_info.o)
 .group         0x00000000        0x8 c:/users/gordon/documents/university/computer_graphics_architecture/dev/devkitpro/devkitarm/bin/../lib/gcc/arm-eabi/4.6.1/../../../../arm-eabi/lib/thumb\libstdc++.a(fundamental_type_info.o)
 .group         0x00000000        0x8 c:/users/gordon/documents/university/computer_graphics_architecture/dev/devkitpro/devkitarm/bin/../lib/gcc/arm-eabi/4.6.1/../../../../arm-eabi/lib/thumb\libstdc++.a(fundamental_type_info.o)
 .group         0x00000000        0x8 c:/users/gordon/documents/university/computer_graphics_architecture/dev/devkitpro/devkitarm/bin/../lib/gcc/arm-eabi/4.6.1/../../../../arm-eabi/lib/thumb\libstdc++.a(fundamental_type_info.o)
 .group         0x00000000        0x8 c:/users/gordon/documents/university/computer_graphics_architecture/dev/devkitpro/devkitarm/bin/../lib/gcc/arm-eabi/4.6.1/../../../../arm-eabi/lib/thumb\libstdc++.a(fundamental_type_info.o)
 .group         0x00000000        0x8 c:/users/gordon/documents/university/computer_graphics_architecture/dev/devkitpro/devkitarm/bin/../lib/gcc/arm-eabi/4.6.1/../../../../arm-eabi/lib/thumb\libstdc++.a(fundamental_type_info.o)
 .group         0x00000000        0x8 c:/users/gordon/documents/university/computer_graphics_architecture/dev/devkitpro/devkitarm/bin/../lib/gcc/arm-eabi/4.6.1/../../../../arm-eabi/lib/thumb\libstdc++.a(fundamental_type_info.o)
 .group         0x00000000        0x8 c:/users/gordon/documents/university/computer_graphics_architecture/dev/devkitpro/devkitarm/bin/../lib/gcc/arm-eabi/4.6.1/../../../../arm-eabi/lib/thumb\libstdc++.a(fundamental_type_info.o)
 .group         0x00000000        0x8 c:/users/gordon/documents/university/computer_graphics_architecture/dev/devkitpro/devkitarm/bin/../lib/gcc/arm-eabi/4.6.1/../../../../arm-eabi/lib/thumb\libstdc++.a(fundamental_type_info.o)
 .group         0x00000000        0x8 c:/users/gordon/documents/university/computer_graphics_architecture/dev/devkitpro/devkitarm/bin/../lib/gcc/arm-eabi/4.6.1/../../../../arm-eabi/lib/thumb\libstdc++.a(fundamental_type_info.o)
 .group         0x00000000        0x8 c:/users/gordon/documents/university/computer_graphics_architecture/dev/devkitpro/devkitarm/bin/../lib/gcc/arm-eabi/4.6.1/../../../../arm-eabi/lib/thumb\libstdc++.a(fundamental_type_info.o)
 .group         0x00000000        0x8 c:/users/gordon/documents/university/computer_graphics_architecture/dev/devkitpro/devkitarm/bin/../lib/gcc/arm-eabi/4.6.1/../../../../arm-eabi/lib/thumb\libstdc++.a(fundamental_type_info.o)
 .group         0x00000000        0x8 c:/users/gordon/documents/university/computer_graphics_architecture/dev/devkitpro/devkitarm/bin/../lib/gcc/arm-eabi/4.6.1/../../../../arm-eabi/lib/thumb\libstdc++.a(fundamental_type_info.o)
 .group         0x00000000        0x8 c:/users/gordon/documents/university/computer_graphics_architecture/dev/devkitpro/devkitarm/bin/../lib/gcc/arm-eabi/4.6.1/../../../../arm-eabi/lib/thumb\libstdc++.a(fundamental_type_info.o)
 .group         0x00000000        0x8 c:/users/gordon/documents/university/computer_graphics_architecture/dev/devkitpro/devkitarm/bin/../lib/gcc/arm-eabi/4.6.1/../../../../arm-eabi/lib/thumb\libstdc++.a(fundamental_type_info.o)
 .group         0x00000000        0x8 c:/users/gordon/documents/university/computer_graphics_architecture/dev/devkitpro/devkitarm/bin/../lib/gcc/arm-eabi/4.6.1/../../../../arm-eabi/lib/thumb\libstdc++.a(fundamental_type_info.o)
 .group         0x00000000        0x8 c:/users/gordon/documents/university/computer_graphics_architecture/dev/devkitpro/devkitarm/bin/../lib/gcc/arm-eabi/4.6.1/../../../../arm-eabi/lib/thumb\libstdc++.a(fundamental_type_info.o)
 .group         0x00000000        0x8 c:/users/gordon/documents/university/computer_graphics_architecture/dev/devkitpro/devkitarm/bin/../lib/gcc/arm-eabi/4.6.1/../../../../arm-eabi/lib/thumb\libstdc++.a(fundamental_type_info.o)
 .group         0x00000000        0x8 c:/users/gordon/documents/university/computer_graphics_architecture/dev/devkitpro/devkitarm/bin/../lib/gcc/arm-eabi/4.6.1/../../../../arm-eabi/lib/thumb\libstdc++.a(fundamental_type_info.o)
 .group         0x00000000        0x8 c:/users/gordon/documents/university/computer_graphics_architecture/dev/devkitpro/devkitarm/bin/../lib/gcc/arm-eabi/4.6.1/../../../../arm-eabi/lib/thumb\libstdc++.a(fundamental_type_info.o)
 .group         0x00000000        0x8 c:/users/gordon/documents/university/computer_graphics_architecture/dev/devkitpro/devkitarm/bin/../lib/gcc/arm-eabi/4.6.1/../../../../arm-eabi/lib/thumb\libstdc++.a(fundamental_type_info.o)
 .group         0x00000000        0x8 c:/users/gordon/documents/university/computer_graphics_architecture/dev/devkitpro/devkitarm/bin/../lib/gcc/arm-eabi/4.6.1/../../../../arm-eabi/lib/thumb\libstdc++.a(fundamental_type_info.o)
 .group         0x00000000        0x8 c:/users/gordon/documents/university/computer_graphics_architecture/dev/devkitpro/devkitarm/bin/../lib/gcc/arm-eabi/4.6.1/../../../../arm-eabi/lib/thumb\libstdc++.a(fundamental_type_info.o)
 .group         0x00000000        0x8 c:/users/gordon/documents/university/computer_graphics_architecture/dev/devkitpro/devkitarm/bin/../lib/gcc/arm-eabi/4.6.1/../../../../arm-eabi/lib/thumb\libstdc++.a(fundamental_type_info.o)
 .group         0x00000000        0x8 c:/users/gordon/documents/university/computer_graphics_architecture/dev/devkitpro/devkitarm/bin/../lib/gcc/arm-eabi/4.6.1/../../../../arm-eabi/lib/thumb\libstdc++.a(fundamental_type_info.o)
 .group         0x00000000        0x8 c:/users/gordon/documents/university/computer_graphics_architecture/dev/devkitpro/devkitarm/bin/../lib/gcc/arm-eabi/4.6.1/../../../../arm-eabi/lib/thumb\libstdc++.a(fundamental_type_info.o)
 .group         0x00000000        0x8 c:/users/gordon/documents/university/computer_graphics_architecture/dev/devkitpro/devkitarm/bin/../lib/gcc/arm-eabi/4.6.1/../../../../arm-eabi/lib/thumb\libstdc++.a(fundamental_type_info.o)
 .group         0x00000000        0x8 c:/users/gordon/documents/university/computer_graphics_architecture/dev/devkitpro/devkitarm/bin/../lib/gcc/arm-eabi/4.6.1/../../../../arm-eabi/lib/thumb\libstdc++.a(fundamental_type_info.o)
 .group         0x00000000        0x8 c:/users/gordon/documents/university/computer_graphics_architecture/dev/devkitpro/devkitarm/bin/../lib/gcc/arm-eabi/4.6.1/../../../../arm-eabi/lib/thumb\libstdc++.a(fundamental_type_info.o)
 .group         0x00000000        0x8 c:/users/gordon/documents/university/computer_graphics_architecture/dev/devkitpro/devkitarm/bin/../lib/gcc/arm-eabi/4.6.1/../../../../arm-eabi/lib/thumb\libstdc++.a(fundamental_type_info.o)
 .group         0x00000000        0x8 c:/users/gordon/documents/university/computer_graphics_architecture/dev/devkitpro/devkitarm/bin/../lib/gcc/arm-eabi/4.6.1/../../../../arm-eabi/lib/thumb\libstdc++.a(fundamental_type_info.o)
 .group         0x00000000        0x8 c:/users/gordon/documents/university/computer_graphics_architecture/dev/devkitpro/devkitarm/bin/../lib/gcc/arm-eabi/4.6.1/../../../../arm-eabi/lib/thumb\libstdc++.a(fundamental_type_info.o)
 .group         0x00000000        0x8 c:/users/gordon/documents/university/computer_graphics_architecture/dev/devkitpro/devkitarm/bin/../lib/gcc/arm-eabi/4.6.1/../../../../arm-eabi/lib/thumb\libstdc++.a(fundamental_type_info.o)
 .group         0x00000000        0x8 c:/users/gordon/documents/university/computer_graphics_architecture/dev/devkitpro/devkitarm/bin/../lib/gcc/arm-eabi/4.6.1/../../../../arm-eabi/lib/thumb\libstdc++.a(fundamental_type_info.o)
 .group         0x00000000        0x8 c:/users/gordon/documents/university/computer_graphics_architecture/dev/devkitpro/devkitarm/bin/../lib/gcc/arm-eabi/4.6.1/../../../../arm-eabi/lib/thumb\libstdc++.a(fundamental_type_info.o)
 .group         0x00000000        0x8 c:/users/gordon/documents/university/computer_graphics_architecture/dev/devkitpro/devkitarm/bin/../lib/gcc/arm-eabi/4.6.1/../../../../arm-eabi/lib/thumb\libstdc++.a(fundamental_type_info.o)
 .group         0x00000000        0x8 c:/users/gordon/documents/university/computer_graphics_architecture/dev/devkitpro/devkitarm/bin/../lib/gcc/arm-eabi/4.6.1/../../../../arm-eabi/lib/thumb\libstdc++.a(fundamental_type_info.o)
 .group         0x00000000        0x8 c:/users/gordon/documents/university/computer_graphics_architecture/dev/devkitpro/devkitarm/bin/../lib/gcc/arm-eabi/4.6.1/../../../../arm-eabi/lib/thumb\libstdc++.a(fundamental_type_info.o)
 .group         0x00000000        0x8 c:/users/gordon/documents/university/computer_graphics_architecture/dev/devkitpro/devkitarm/bin/../lib/gcc/arm-eabi/4.6.1/../../../../arm-eabi/lib/thumb\libstdc++.a(fundamental_type_info.o)
 .group         0x00000000        0x8 c:/users/gordon/documents/university/computer_graphics_architecture/dev/devkitpro/devkitarm/bin/../lib/gcc/arm-eabi/4.6.1/../../../../arm-eabi/lib/thumb\libstdc++.a(fundamental_type_info.o)
 .group         0x00000000        0x8 c:/users/gordon/documents/university/computer_graphics_architecture/dev/devkitpro/devkitarm/bin/../lib/gcc/arm-eabi/4.6.1/../../../../arm-eabi/lib/thumb\libstdc++.a(fundamental_type_info.o)
 .group         0x00000000        0x8 c:/users/gordon/documents/university/computer_graphics_architecture/dev/devkitpro/devkitarm/bin/../lib/gcc/arm-eabi/4.6.1/../../../../arm-eabi/lib/thumb\libstdc++.a(fundamental_type_info.o)
 .group         0x00000000        0x8 c:/users/gordon/documents/university/computer_graphics_architecture/dev/devkitpro/devkitarm/bin/../lib/gcc/arm-eabi/4.6.1/../../../../arm-eabi/lib/thumb\libstdc++.a(fundamental_type_info.o)
 .group         0x00000000       0x10 c:/users/gordon/documents/university/computer_graphics_architecture/dev/devkitpro/devkitarm/bin/../lib/gcc/arm-eabi/4.6.1/../../../../arm-eabi/lib/thumb\libstdc++.a(pbase_type_info.o)

Memory Configuration

Name             Origin             Length             Attributes
rom              0x08000000         0x02000000
iwram            0x03000000         0x00008000
ewram            0x02000000         0x00040000
*default*        0x00000000         0xffffffff

Linker script and memory map

                0x08000000                __text_start = ORIGIN (rom)
                0x02040000                __eheap_end = (ORIGIN (ewram) + 0x40000)
                0x03000000                __iwram_start = ORIGIN (iwram)
                0x03008000                __iwram_top = (ORIGIN (iwram) + 0x8000)
                0x03007fa0                __sp_irq = (__iwram_top - 0x60)
                0x03007f00                __sp_usr = (__sp_irq - 0xa0)
                0x03007ff8                __irq_flags = 0x3007ff8
                0x08000000                . = __text_start

.init           0x08000000      0x21c
 *(.init)
 .init          0x08000000      0x210 c:/users/gordon/documents/university/computer_graphics_architecture/dev/devkitpro/devkitarm/bin/../lib/gcc/arm-eabi/4.6.1/../../../../arm-eabi/lib/thumb/gba_crt0.o
                0x08000000                _start
                0x080000c4                __boot_method
                0x080000c5                __slave_number
                0x080000e0                start_vector
 .init          0x08000210        0x4 c:/users/gordon/documents/university/computer_graphics_architecture/dev/devkitpro/devkitarm/bin/../lib/gcc/arm-eabi/4.6.1/thumb/crti.o
                0x08000210                _init
 .init          0x08000214        0x8 c:/users/gordon/documents/university/computer_graphics_architecture/dev/devkitpro/devkitarm/bin/../lib/gcc/arm-eabi/4.6.1/thumb/crtn.o
                0x0800021c                . = ALIGN (0x4)

.plt            0x0800021c        0x0
 *(.plt)
                0x0800021c                . = ALIGN (0x4)

.text           0x08000220    0x10eb8
 *(EXCLUDE_FILE(*.iwram*) .text)
 .text          0x08000220        0x0 c:/users/gordon/documents/university/computer_graphics_architecture/dev/devkitpro/devkitarm/bin/../lib/gcc/arm-eabi/4.6.1/../../../../arm-eabi/lib/thumb/gba_crt0.o
 .text          0x08000220        0x0 c:/users/gordon/documents/university/computer_graphics_architecture/dev/devkitpro/devkitarm/bin/../lib/gcc/arm-eabi/4.6.1/thumb/crti.o
 .text          0x08000220       0x6c c:/users/gordon/documents/university/computer_graphics_architecture/dev/devkitpro/devkitarm/bin/../lib/gcc/arm-eabi/4.6.1/thumb/crtbegin.o
 .text          0x0800028c        0x0 tiles.o
 .text          0x0800028c        0x0 font.o
 .text          0x0800028c      0x154 gba.o
                0x0800028c                WaitVSync()
                0x080002a8                FlipBuffers()
                0x080002d4                ClearScreen8(unsigned char)
                0x080002fc                ClearScreen16(unsigned short)
                0x08000318                CopyScreen()
                0x08000350                ClearObjects()
                0x08000394                UpdateObjects()
                0x080003c0                CopyToVRAM(unsigned short volatile*, unsigned short const*, int)
 .text          0x080003e0      0x1c4 main.o
                0x080003e0                initDisplay()
                0x08000468                loadTiles()
                0x08000560                loadPalletes()
 .text          0x080005a4      0x308 player.o
                0x080005a4                Player::Player(int, int)
                0x080005a4                Player::Player(int, int)
                0x080005cc                Player::tillSoil()
                0x08000600                Player::plantSeeds()
                0x08000634                Player::waterSoil()
                0x08000668                Player::harvestCrops()
                0x0800069c                Player::updatePosition()
                0x080006fc                Player::getInputs()
                0x08000824                Player::onTick()
 .text          0x080008ac       0x10 util.o
                0x080008ac                isKeyDown(int)
 .text          0x080008bc       0xfc world.o
                0x080008bc                harvest(int, int)
                0x080008f8                till(int, int)
                0x08000934                water(int, int)
                0x08000974                plant(int, int)
 .text          0x080009b8        0x0 c:/users/gordon/documents/university/computer_graphics_architecture/dev/devkitpro/devkitarm/bin/../lib/gcc/arm-eabi/4.6.1/../../../../arm-eabi/lib/thumb\libstdc++.a(new_op.o)
 .text          0x080009b8        0x0 c:/users/gordon/documents/university/computer_graphics_architecture/dev/devkitpro/devkitarm/bin/../lib/gcc/arm-eabi/4.6.1/../../../../arm-eabi/lib/thumb\libstdc++.a(bad_alloc.o)
 .text          0x080009b8        0x0 c:/users/gordon/documents/university/computer_graphics_architecture/dev/devkitpro/devkitarm/bin/../lib/gcc/arm-eabi/4.6.1/../../../../arm-eabi/lib/thumb\libstdc++.a(del_op.o)
 .text          0x080009b8        0x0 c:/users/gordon/documents/university/computer_graphics_architecture/dev/devkitpro/devkitarm/bin/../lib/gcc/arm-eabi/4.6.1/../../../../arm-eabi/lib/thumb\libstdc++.a(eh_alloc.o)
 .text          0x080009b8        0x0 c:/users/gordon/documents/university/computer_graphics_architecture/dev/devkitpro/devkitarm/bin/../lib/gcc/arm-eabi/4.6.1/../../../../arm-eabi/lib/thumb\libstdc++.a(eh_arm.o)
 .text          0x080009b8        0x0 c:/users/gordon/documents/university/computer_graphics_architecture/dev/devkitpro/devkitarm/bin/../lib/gcc/arm-eabi/4.6.1/../../../../arm-eabi/lib/thumb\libstdc++.a(eh_aux_runtime.o)
 .text          0x080009b8        0x0 c:/users/gordon/documents/university/computer_graphics_architecture/dev/devkitpro/devkitarm/bin/../lib/gcc/arm-eabi/4.6.1/../../../../arm-eabi/lib/thumb\libstdc++.a(eh_call.o)
 .text          0x080009b8        0x0 c:/users/gordon/documents/university/computer_graphics_architecture/dev/devkitpro/devkitarm/bin/../lib/gcc/arm-eabi/4.6.1/../../../../arm-eabi/lib/thumb\libstdc++.a(eh_catch.o)
 .text          0x080009b8        0x0 c:/users/gordon/documents/university/computer_graphics_architecture/dev/devkitpro/devkitarm/bin/../lib/gcc/arm-eabi/4.6.1/../../../../arm-eabi/lib/thumb\libstdc++.a(eh_exception.o)
 .text          0x080009b8        0x0 c:/users/gordon/documents/university/computer_graphics_architecture/dev/devkitpro/devkitarm/bin/../lib/gcc/arm-eabi/4.6.1/../../../../arm-eabi/lib/thumb\libstdc++.a(eh_globals.o)
 .text          0x080009b8        0x0 c:/users/gordon/documents/university/computer_graphics_architecture/dev/devkitpro/devkitarm/bin/../lib/gcc/arm-eabi/4.6.1/../../../../arm-eabi/lib/thumb\libstdc++.a(eh_personality.o)
 .text          0x080009b8        0x0 c:/users/gordon/documents/university/computer_graphics_architecture/dev/devkitpro/devkitarm/bin/../lib/gcc/arm-eabi/4.6.1/../../../../arm-eabi/lib/thumb\libstdc++.a(eh_terminate.o)
 .text          0x080009b8        0x0 c:/users/gordon/documents/university/computer_graphics_architecture/dev/devkitpro/devkitarm/bin/../lib/gcc/arm-eabi/4.6.1/../../../../arm-eabi/lib/thumb\libstdc++.a(eh_term_handler.o)
 .text          0x080009b8        0x0 c:/users/gordon/documents/university/computer_graphics_architecture/dev/devkitpro/devkitarm/bin/../lib/gcc/arm-eabi/4.6.1/../../../../arm-eabi/lib/thumb\libstdc++.a(eh_throw.o)
 .text          0x080009b8        0x0 c:/users/gordon/documents/university/computer_graphics_architecture/dev/devkitpro/devkitarm/bin/../lib/gcc/arm-eabi/4.6.1/../../../../arm-eabi/lib/thumb\libstdc++.a(eh_unex_handler.o)
 .text          0x080009b8        0x0 c:/users/gordon/documents/university/computer_graphics_architecture/dev/devkitpro/devkitarm/bin/../lib/gcc/arm-eabi/4.6.1/../../../../arm-eabi/lib/thumb\libstdc++.a(fundamental_type_info.o)
 .text          0x080009b8        0x0 c:/users/gordon/documents/university/computer_graphics_architecture/dev/devkitpro/devkitarm/bin/../lib/gcc/arm-eabi/4.6.1/../../../../arm-eabi/lib/thumb\libstdc++.a(new_handler.o)
 .text          0x080009b8        0x0 c:/users/gordon/documents/university/computer_graphics_architecture/dev/devkitpro/devkitarm/bin/../lib/gcc/arm-eabi/4.6.1/../../../../arm-eabi/lib/thumb\libstdc++.a(pointer_type_info.o)
 .text          0x080009b8        0x0 c:/users/gordon/documents/university/computer_graphics_architecture/dev/devkitpro/devkitarm/bin/../lib/gcc/arm-eabi/4.6.1/../../../../arm-eabi/lib/thumb\libstdc++.a(pure.o)
 .text          0x080009b8        0x0 c:/users/gordon/documents/university/computer_graphics_architecture/dev/devkitpro/devkitarm/bin/../lib/gcc/arm-eabi/4.6.1/../../../../arm-eabi/lib/thumb\libstdc++.a(si_class_type_info.o)
 .text          0x080009b8        0x0 c:/users/gordon/documents/university/computer_graphics_architecture/dev/devkitpro/devkitarm/bin/../lib/gcc/arm-eabi/4.6.1/../../../../arm-eabi/lib/thumb\libstdc++.a(tinfo.o)
 .text          0x080009b8        0x0 c:/users/gordon/documents/university/computer_graphics_architecture/dev/devkitpro/devkitarm/bin/../lib/gcc/arm-eabi/4.6.1/../../../../arm-eabi/lib/thumb\libstdc++.a(vterminate.o)
 .text          0x080009b8        0x0 c:/users/gordon/documents/university/computer_graphics_architecture/dev/devkitpro/devkitarm/bin/../lib/gcc/arm-eabi/4.6.1/../../../../arm-eabi/lib/thumb\libstdc++.a(bad_cast.o)
 .text          0x080009b8        0x0 c:/users/gordon/documents/university/computer_graphics_architecture/dev/devkitpro/devkitarm/bin/../lib/gcc/arm-eabi/4.6.1/../../../../arm-eabi/lib/thumb\libstdc++.a(bad_typeid.o)
 .text          0x080009b8        0x0 c:/users/gordon/documents/university/computer_graphics_architecture/dev/devkitpro/devkitarm/bin/../lib/gcc/arm-eabi/4.6.1/../../../../arm-eabi/lib/thumb\libstdc++.a(class_type_info.o)
 .text          0x080009b8     0x4f90 c:/users/gordon/documents/university/computer_graphics_architecture/dev/devkitpro/devkitarm/bin/../lib/gcc/arm-eabi/4.6.1/../../../../arm-eabi/lib/thumb\libstdc++.a(cp-demangle.o)
                0x08005854                __cxa_demangle
                0x0800591c                __gcclibcxx_demangle_callback
 .text          0x08005948        0x0 c:/users/gordon/documents/university/computer_graphics_architecture/dev/devkitpro/devkitarm/bin/../lib/gcc/arm-eabi/4.6.1/../../../../arm-eabi/lib/thumb\libstdc++.a(eh_type.o)
 .text          0x08005948        0x0 c:/users/gordon/documents/university/computer_graphics_architecture/dev/devkitpro/devkitarm/bin/../lib/gcc/arm-eabi/4.6.1/../../../../arm-eabi/lib/thumb\libstdc++.a(pbase_type_info.o)
 .text          0x08005948      0x11c c:/users/gordon/documents/university/computer_graphics_architecture/dev/devkitpro/devkitarm/bin/../lib/gcc/arm-eabi/4.6.1/thumb\libgcc.a(_udivsi3.o)
                0x08005948                __aeabi_uidiv
                0x08005948                __udivsi3
                0x08005a44                __aeabi_uidivmod
 .text          0x08005a64        0x4 c:/users/gordon/documents/university/computer_graphics_architecture/dev/devkitpro/devkitarm/bin/../lib/gcc/arm-eabi/4.6.1/thumb\libgcc.a(_dvmd_tls.o)
                0x08005a64                __aeabi_idiv0
                0x08005a64                __aeabi_ldiv0
 .text          0x08005a68      0xa84 c:/users/gordon/documents/university/computer_graphics_architecture/dev/devkitpro/devkitarm/bin/../lib/gcc/arm-eabi/4.6.1/thumb\libgcc.a(unwind-arm.o)
                0x08005d44                _Unwind_VRS_Get
                0x08005d90                _Unwind_VRS_Set
                0x080060d0                __aeabi_unwind_cpp_pr2
                0x080060e0                __aeabi_unwind_cpp_pr1
                0x080060f0                __aeabi_unwind_cpp_pr0
                0x08006100                _Unwind_VRS_Pop
                0x08006378                _Unwind_GetCFA
                0x0800637c                __gnu_Unwind_RaiseException
                0x080063dc                __gnu_Unwind_ForcedUnwind
                0x080063f4                __gnu_Unwind_Resume
                0x08006434                __gnu_Unwind_Resume_or_Rethrow
                0x08006454                _Unwind_Complete
                0x08006458                _Unwind_DeleteException
                0x08006470                __gnu_Unwind_Backtrace
 .text          0x080064ec      0x1d8 c:/users/gordon/documents/university/computer_graphics_architecture/dev/devkitpro/devkitarm/bin/../lib/gcc/arm-eabi/4.6.1/thumb\libgcc.a(libunwind.o)
                0x080064ec                __restore_core_regs
                0x080064ec                restore_core_regs
                0x08006508                __gnu_Unwind_Restore_VFP
                0x08006510                __gnu_Unwind_Save_VFP
                0x08006518                __gnu_Unwind_Restore_VFP_D
                0x08006520                __gnu_Unwind_Save_VFP_D
                0x08006528                __gnu_Unwind_Restore_VFP_D_16_to_31
                0x08006530                __gnu_Unwind_Save_VFP_D_16_to_31
                0x08006538                __gnu_Unwind_Restore_WMMXD
                0x0800657c                __gnu_Unwind_Save_WMMXD
                0x080065c0                __gnu_Unwind_Restore_WMMXC
                0x080065d4                __gnu_Unwind_Save_WMMXC
                0x080065e8                ___Unwind_RaiseException
                0x080065e8                _Unwind_RaiseException
                0x08006614                _Unwind_Resume
                0x08006614                ___Unwind_Resume
                0x08006640                _Unwind_Resume_or_Rethrow
                0x08006640                ___Unwind_Resume_or_Rethrow
                0x0800666c                _Unwind_ForcedUnwind
                0x0800666c                ___Unwind_ForcedUnwind
                0x08006698                ___Unwind_Backtrace
                0x08006698                _Unwind_Backtrace
 .text          0x080066c4      0x3a0 c:/users/gordon/documents/university/computer_graphics_architecture/dev/devkitpro/devkitarm/bin/../lib/gcc/arm-eabi/4.6.1/thumb\libgcc.a(pr-support.o)
                0x08006720                __gnu_unwind_execute
                0x08006a00                __gnu_unwind_frame
                0x08006a2c                _Unwind_GetRegionStart
                0x08006a3c                _Unwind_GetLanguageSpecificData
                0x08006a54                _Unwind_GetDataRelBase
                0x08006a5c                _Unwind_GetTextRelBase
 .text          0x08006a64       0x10 c:/users/gordon/documents/university/computer_graphics_architecture/dev/devkitpro/devkitarm/bin/../lib/gcc/arm-eabi/4.6.1/../../../../arm-eabi/lib/thumb\libg.a(lib_a-abort.o)
                0x08006a64                abort
 .text          0x08006a74       0x54 c:/users/gordon/documents/university/computer_graphics_architecture/dev/devkitpro/devkitarm/bin/../lib/gcc/arm-eabi/4.6.1/../../../../arm-eabi/lib/thumb\libg.a(lib_a-fputc.o)
                0x08006a74                _fputc_r
                0x08006a9c                fputc
 .text          0x08006ac8       0x78 c:/users/gordon/documents/university/computer_graphics_architecture/dev/devkitpro/devkitarm/bin/../lib/gcc/arm-eabi/4.6.1/../../../../arm-eabi/lib/thumb\libg.a(lib_a-fputs.o)
                0x08006ac8                _fputs_r
                0x08006b24                fputs
 .text          0x08006b40      0x31c c:/users/gordon/documents/university/computer_graphics_architecture/dev/devkitpro/devkitarm/bin/../lib/gcc/arm-eabi/4.6.1/../../../../arm-eabi/lib/thumb\libg.a(lib_a-fvwrite.o)
                0x08006b40                __sfvwrite_r
 .text          0x08006e5c       0x9c c:/users/gordon/documents/university/computer_graphics_architecture/dev/devkitpro/devkitarm/bin/../lib/gcc/arm-eabi/4.6.1/../../../../arm-eabi/lib/thumb\libg.a(lib_a-fwrite.o)
                0x08006e5c                _fwrite_r
                0x08006ed0                fwrite
 .text          0x08006ef8        0x0 c:/users/gordon/documents/university/computer_graphics_architecture/dev/devkitpro/devkitarm/bin/../lib/gcc/arm-eabi/4.6.1/../../../../arm-eabi/lib/thumb\libg.a(lib_a-impure.o)
 .text          0x08006ef8       0x50 c:/users/gordon/documents/university/computer_graphics_architecture/dev/devkitpro/devkitarm/bin/../lib/gcc/arm-eabi/4.6.1/../../../../arm-eabi/lib/thumb\libg.a(lib_a-init.o)
                0x08006ef8                __libc_init_array
 .text          0x08006f48       0x30 c:/users/gordon/documents/university/computer_graphics_architecture/dev/devkitpro/devkitarm/bin/../lib/gcc/arm-eabi/4.6.1/../../../../arm-eabi/lib/thumb\libg.a(lib_a-malloc.o)
                0x08006f48                malloc
                0x08006f60                free
 .text          0x08006f78      0x514 c:/users/gordon/documents/university/computer_graphics_architecture/dev/devkitpro/devkitarm/bin/../lib/gcc/arm-eabi/4.6.1/../../../../arm-eabi/lib/thumb\libg.a(lib_a-mallocr.o)
                0x08006f78                _malloc_r
 .text          0x0800748c       0x94 c:/users/gordon/documents/university/computer_graphics_architecture/dev/devkitpro/devkitarm/bin/../lib/gcc/arm-eabi/4.6.1/../../../../arm-eabi/lib/thumb\libg.a(lib_a-memchr.o)
                0x0800748c                memchr
 .text          0x08007520       0x64 c:/users/gordon/documents/university/computer_graphics_architecture/dev/devkitpro/devkitarm/bin/../lib/gcc/arm-eabi/4.6.1/../../../../arm-eabi/lib/thumb\libg.a(lib_a-memcmp.o)
                0x08007520                memcmp
 .text          0x08007584       0x80 c:/users/gordon/documents/university/computer_graphics_architecture/dev/devkitpro/devkitarm/bin/../lib/gcc/arm-eabi/4.6.1/../../../../arm-eabi/lib/thumb\libg.a(lib_a-memcpy.o)
                0x08007584                memcpy
 .text          0x08007604       0xa8 c:/users/gordon/documents/university/computer_graphics_architecture/dev/devkitpro/devkitarm/bin/../lib/gcc/arm-eabi/4.6.1/../../../../arm-eabi/lib/thumb\libg.a(lib_a-memmove.o)
                0x08007604                memmove
 .text          0x080076ac       0x98 c:/users/gordon/documents/university/computer_graphics_architecture/dev/devkitpro/devkitarm/bin/../lib/gcc/arm-eabi/4.6.1/../../../../arm-eabi/lib/thumb\libg.a(lib_a-memset.o)
                0x080076ac                memset
 .text          0x08007744        0x8 c:/users/gordon/documents/university/computer_graphics_architecture/dev/devkitpro/devkitarm/bin/../lib/gcc/arm-eabi/4.6.1/../../../../arm-eabi/lib/thumb\libg.a(lib_a-mlock.o)
                0x08007744                __malloc_lock
                0x08007748                __malloc_unlock
 .text          0x0800774c       0xc4 c:/users/gordon/documents/university/computer_graphics_architecture/dev/devkitpro/devkitarm/bin/../lib/gcc/arm-eabi/4.6.1/../../../../arm-eabi/lib/thumb\libg.a(lib_a-putc.o)
                0x0800774c                _putc_r
                0x080077ac                putc
 .text          0x08007810       0x1c c:/users/gordon/documents/university/computer_graphics_architecture/dev/devkitpro/devkitarm/bin/../lib/gcc/arm-eabi/4.6.1/../../../../arm-eabi/lib/thumb\libg.a(lib_a-realloc.o)
                0x08007810                realloc
 .text          0x0800782c      0x3c4 c:/users/gordon/documents/university/computer_graphics_architecture/dev/devkitpro/devkitarm/bin/../lib/gcc/arm-eabi/4.6.1/../../../../arm-eabi/lib/thumb\libg.a(lib_a-reallocr.o)
                0x0800782c                _realloc_r
 .text          0x08007bf0      0x194 c:/users/gordon/documents/university/computer_graphics_architecture/dev/devkitpro/devkitarm/bin/../lib/gcc/arm-eabi/4.6.1/../../../../arm-eabi/lib/thumb\libg.a(lib_a-signal.o)
                0x08007bf0                _init_signal_r
                0x08007c30                _signal_r
                0x08007c70                _raise_r
                0x08007cd0                __sigtramp_r
                0x08007d20                raise
                0x08007d38                signal
                0x08007d54                _init_signal
                0x08007d68                __sigtramp
 .text          0x08007d84       0x84 c:/users/gordon/documents/university/computer_graphics_architecture/dev/devkitpro/devkitarm/bin/../lib/gcc/arm-eabi/4.6.1/../../../../arm-eabi/lib/thumb\libg.a(lib_a-sprintf.o)
                0x08007d84                _sprintf_r
                0x08007dc4                sprintf
 .text          0x08007e08       0x14 c:/users/gordon/documents/university/computer_graphics_architecture/dev/devkitpro/devkitarm/bin/../lib/gcc/arm-eabi/4.6.1/../../../../arm-eabi/lib/thumb\libg.a(lib_a-strcmp.o)
                0x08007e08                strcmp
 .text          0x08007e1c       0x10 c:/users/gordon/documents/university/computer_graphics_architecture/dev/devkitpro/devkitarm/bin/../lib/gcc/arm-eabi/4.6.1/../../../../arm-eabi/lib/thumb\libg.a(lib_a-strcpy.o)
                0x08007e1c                strcpy
 .text          0x08007e2c       0x10 c:/users/gordon/documents/university/computer_graphics_architecture/dev/devkitpro/devkitarm/bin/../lib/gcc/arm-eabi/4.6.1/../../../../arm-eabi/lib/thumb\libg.a(lib_a-strlen.o)
                0x08007e2c                strlen
 .text          0x08007e3c       0xc0 c:/users/gordon/documents/university/computer_graphics_architecture/dev/devkitpro/devkitarm/bin/../lib/gcc/arm-eabi/4.6.1/../../../../arm-eabi/lib/thumb\libg.a(lib_a-strncmp.o)
                0x08007e3c                strncmp
 *fill*         0x08007efc        0x4 ff
 .text          0x08007f00     0x16f8 c:/users/gordon/documents/university/computer_graphics_architecture/dev/devkitpro/devkitarm/bin/../lib/gcc/arm-eabi/4.6.1/../../../../arm-eabi/lib/thumb\libg.a(lib_a-svfprintf.o)
                0x08007f00                _svfprintf_r
 .text          0x080095f8       0x20 c:/users/gordon/documents/university/computer_graphics_architecture/dev/devkitpro/devkitarm/bin/../lib/gcc/arm-eabi/4.6.1/../../../../arm-eabi/lib/thumb\libg.a(lib_a-syswrite.o)
                0x080095f8                write
 .text          0x08009618       0xe4 c:/users/gordon/documents/university/computer_graphics_architecture/dev/devkitpro/devkitarm/bin/../lib/gcc/arm-eabi/4.6.1/../../../../arm-eabi/lib/thumb\libg.a(lib_a-wbuf.o)
                0x08009618                __swbuf_r
                0x080096e0                __swbuf
 .text          0x080096fc       0xdc c:/users/gordon/documents/university/computer_graphics_architecture/dev/devkitpro/devkitarm/bin/../lib/gcc/arm-eabi/4.6.1/../../../../arm-eabi/lib/thumb\libg.a(lib_a-wcrtomb.o)
                0x080096fc                _wcrtomb_r
                0x08009760                wcrtomb
 .text          0x080097d8       0x40 c:/users/gordon/documents/university/computer_graphics_architecture/dev/devkitpro/devkitarm/bin/../lib/gcc/arm-eabi/4.6.1/../../../../arm-eabi/lib/thumb\libg.a(lib_a-wcsrtombs.o)
                0x080097d8                _wcsrtombs_r
                0x080097f0                wcsrtombs
 .text          0x08009818      0x27c c:/users/gordon/documents/university/computer_graphics_architecture/dev/devkitpro/devkitarm/bin/../lib/gcc/arm-eabi/4.6.1/../../../../arm-eabi/lib/thumb\libg.a(lib_a-wctomb_r.o)
                0x08009818                __utf8_wctomb
                0x080098d8                _wctomb_r
                0x08009910                __ascii_wctomb
                0x08009930                __sjis_wctomb
                0x0800999c                __eucjp_wctomb
                0x08009a18                __jis_wctomb
 .text          0x08009a94       0xbc c:/users/gordon/documents/university/computer_graphics_architecture/dev/devkitpro/devkitarm/bin/../lib/gcc/arm-eabi/4.6.1/../../../../arm-eabi/lib/thumb\libg.a(lib_a-wsetup.o)
                0x08009a94                __swsetup_r
 .text          0x08009b50     0x1010 c:/users/gordon/documents/university/computer_graphics_architecture/dev/devkitpro/devkitarm/bin/../lib/gcc/arm-eabi/4.6.1/../../../../arm-eabi/lib/thumb\libg.a(lib_a-dtoa.o)
                0x08009cac                _dtoa_r
 .text          0x0800ab60      0x18c c:/users/gordon/documents/university/computer_graphics_architecture/dev/devkitpro/devkitarm/bin/../lib/gcc/arm-eabi/4.6.1/../../../../arm-eabi/lib/thumb\libg.a(lib_a-fflush.o)
                0x0800ab60                _fflush_r
                0x0800acbc                fflush
 .text          0x0800acec      0x1ec c:/users/gordon/documents/university/computer_graphics_architecture/dev/devkitpro/devkitarm/bin/../lib/gcc/arm-eabi/4.6.1/../../../../arm-eabi/lib/thumb\libg.a(lib_a-findfp.o)
                0x0800acf4                _cleanup_r
                0x0800ad54                __sfmoreglue
                0x0800ad84                _cleanup
                0x0800ad98                __sinit
                0x0800adec                __sfp
                0x0800ae90                __sfp_lock_acquire
                0x0800ae94                __sfp_lock_release
                0x0800ae98                __sinit_lock_acquire
                0x0800ae9c                __sinit_lock_release
                0x0800aea0                __fp_lock_all
                0x0800aebc                __fp_unlock_all
 .text          0x0800aed8      0x248 c:/users/gordon/documents/university/computer_graphics_architecture/dev/devkitpro/devkitarm/bin/../lib/gcc/arm-eabi/4.6.1/../../../../arm-eabi/lib/thumb\libg.a(lib_a-freer.o)
                0x0800aed8                _malloc_trim_r
                0x0800af84                _free_r
 .text          0x0800b120       0xc4 c:/users/gordon/documents/university/computer_graphics_architecture/dev/devkitpro/devkitarm/bin/../lib/gcc/arm-eabi/4.6.1/../../../../arm-eabi/lib/thumb\libg.a(lib_a-fwalk.o)
                0x0800b120                _fwalk
                0x0800b17c                _fwalk_reent
 .text          0x0800b1e4      0x938 c:/users/gordon/documents/university/computer_graphics_architecture/dev/devkitpro/devkitarm/bin/../lib/gcc/arm-eabi/4.6.1/../../../../arm-eabi/lib/thumb\libg.a(lib_a-locale.o)
                0x0800b8a0                _setlocale_r
                0x0800babc                __locale_charset
                0x0800bac4                __locale_mb_cur_max
                0x0800bad0                __locale_msgcharset
                0x0800badc                __locale_cjk_lang
                0x0800bae8                _localeconv_r
                0x0800baf4                setlocale
                0x0800bb10                localeconv
 .text          0x0800bb1c       0xe4 c:/users/gordon/documents/university/computer_graphics_architecture/dev/devkitpro/devkitarm/bin/../lib/gcc/arm-eabi/4.6.1/../../../../arm-eabi/lib/thumb\libg.a(lib_a-makebuf.o)
                0x0800bb1c                __smakebuf_r
 .text          0x0800bc00      0x5f8 c:/users/gordon/documents/university/computer_graphics_architecture/dev/devkitpro/devkitarm/bin/../lib/gcc/arm-eabi/4.6.1/../../../../arm-eabi/lib/thumb\libg.a(lib_a-mbtowc_r.o)
                0x0800bc00                __utf8_mbtowc
                0x0800bec8                _mbtowc_r
                0x0800bf04                __ascii_mbtowc
                0x0800bf30                __sjis_mbtowc
                0x0800bfec                __eucjp_mbtowc
                0x0800c0cc                __jis_mbtowc
 .text          0x0800c1f8      0x988 c:/users/gordon/documents/university/computer_graphics_architecture/dev/devkitpro/devkitarm/bin/../lib/gcc/arm-eabi/4.6.1/../../../../arm-eabi/lib/thumb\libg.a(lib_a-mprec.o)
                0x0800c1f8                _Balloc
                0x0800c24c                _Bfree
                0x0800c264                __multadd
                0x0800c2f8                __s2b
                0x0800c38c                __hi0bits
                0x0800c3c4                __lo0bits
                0x0800c424                __i2b
                0x0800c43c                __multiply
                0x0800c5ac                __pow5mult
                0x0800c65c                __lshift
                0x0800c72c                __mcmp
                0x0800c768                __mdiff
                0x0800c854                __ulp
                0x0800c89c                __b2d
                0x0800c958                __d2b
                0x0800ca28                __ratio
                0x0800ca94                _mprec_log10
                0x0800cad4                __copybits
                0x0800cb1c                __any_on
 .text          0x0800cb80       0x90 c:/users/gordon/documents/university/computer_graphics_architecture/dev/devkitpro/devkitarm/bin/../lib/gcc/arm-eabi/4.6.1/../../../../arm-eabi/lib/thumb\libg.a(lib_a-s_fpclassify.o)
                0x0800cb80                __fpclassifyd
 .text          0x0800cc10       0xac c:/users/gordon/documents/university/computer_graphics_architecture/dev/devkitpro/devkitarm/bin/../lib/gcc/arm-eabi/4.6.1/../../../../arm-eabi/lib/thumb\libg.a(lib_a-stdio.o)
                0x0800cc10                __sread
                0x0800cc3c                __seofread
                0x0800cc40                __swrite
                0x0800cc7c                __sseek
                0x0800ccac                __sclose
 .text          0x0800ccbc       0x50 c:/users/gordon/documents/university/computer_graphics_architecture/dev/devkitpro/devkitarm/bin/../lib/gcc/arm-eabi/4.6.1/../../../../arm-eabi/lib/thumb\libg.a(lib_a-strcasecmp.o)
                0x0800ccbc                strcasecmp
 .text          0x0800cd0c       0x58 c:/users/gordon/documents/university/computer_graphics_architecture/dev/devkitpro/devkitarm/bin/../lib/gcc/arm-eabi/4.6.1/../../../../arm-eabi/lib/thumb\libg.a(lib_a-strcat.o)
                0x0800cd0c                strcat
 .text          0x0800cd64       0xe4 c:/users/gordon/documents/university/computer_graphics_architecture/dev/devkitpro/devkitarm/bin/../lib/gcc/arm-eabi/4.6.1/../../../../arm-eabi/lib/thumb\libg.a(lib_a-strchr.o)
                0x0800cd64                strchr
 .text          0x0800ce48       0x4c c:/users/gordon/documents/university/computer_graphics_architecture/dev/devkitpro/devkitarm/bin/../lib/gcc/arm-eabi/4.6.1/../../../../arm-eabi/lib/thumb\libg.a(lib_a-strlcpy.o)
                0x0800ce48                strlcpy
 .text          0x0800ce94       0x60 c:/users/gordon/documents/university/computer_graphics_architecture/dev/devkitpro/devkitarm/bin/../lib/gcc/arm-eabi/4.6.1/../../../../arm-eabi/lib/thumb\libg.a(lib_a-strncasecmp.o)
                0x0800ce94                strncasecmp
 .text          0x0800cef4       0x78 c:/users/gordon/documents/university/computer_graphics_architecture/dev/devkitpro/devkitarm/bin/../lib/gcc/arm-eabi/4.6.1/../../../../arm-eabi/lib/thumb\libg.a(lib_a-strncpy.o)
                0x0800cef4                strncpy
 .text          0x0800cf6c      0x184 c:/users/gordon/documents/university/computer_graphics_architecture/dev/devkitpro/devkitarm/bin/../lib/gcc/arm-eabi/4.6.1/../../../../arm-eabi/lib/thumb\libg.a(lib_a-strtol.o)
                0x0800cf6c                _strtol_r
                0x0800d0d0                strtol
 .text          0x0800d0f0      0xd9c c:/users/gordon/documents/university/computer_graphics_architecture/dev/devkitpro/devkitarm/bin/../lib/gcc/arm-eabi/4.6.1/../../../../arm-eabi/lib/thumb\libg.a(lib_a-svfiprintf.o)
                0x0800d0f0                __ssprint_r
                0x0800d220                _svfiprintf_r
 .text          0x0800de8c      0x13c c:/users/gordon/documents/university/computer_graphics_architecture/dev/devkitpro/devkitarm/bin/../lib/gcc/arm-eabi/4.6.1/../../../../arm-eabi/lib/thumb\libg.a(lib_a-wcsnrtombs.o)
                0x0800de8c                _wcsnrtombs_r
                0x0800df98                wcsnrtombs
 .text          0x0800dfc8       0x64 c:/users/gordon/documents/university/computer_graphics_architecture/dev/devkitpro/devkitarm/bin/../lib/gcc/arm-eabi/4.6.1/../../../../arm-eabi/lib/thumb\libg.a(lib_a-callocr.o)
                0x0800dfc8                _calloc_r
 .text          0x0800e02c       0x10 c:/users/gordon/documents/university/computer_graphics_architecture/dev/devkitpro/devkitarm/bin/../lib/gcc/arm-eabi/4.6.1/../../../../arm-eabi/lib/thumb\libg.a(lib_a-ctype_.o)
                0x0800e02c                __set_ctype
 .text          0x0800e03c       0xc0 c:/users/gordon/documents/university/computer_graphics_architecture/dev/devkitpro/devkitarm/bin/../lib/gcc/arm-eabi/4.6.1/../../../../arm-eabi/lib/thumb\libg.a(lib_a-fclose.o)
                0x0800e03c                _fclose_r
                0x0800e0e0                fclose
 .text          0x0800e0fc       0xa8 c:/users/gordon/documents/university/computer_graphics_architecture/dev/devkitpro/devkitarm/bin/../lib/gcc/arm-eabi/4.6.1/../../../../arm-eabi/lib/thumb\libg.a(lib_a-getenv_r.o)
                0x0800e0fc                _findenv_r
                0x0800e194                _getenv_r
 .text          0x0800e1a4        0x0 c:/users/gordon/documents/university/computer_graphics_architecture/dev/devkitpro/devkitarm/bin/../lib/gcc/arm-eabi/4.6.1/../../../../arm-eabi/lib/thumb\libg.a(lib_a-environ.o)
 .text          0x0800e1a4        0x8 c:/users/gordon/documents/university/computer_graphics_architecture/dev/devkitpro/devkitarm/bin/../lib/gcc/arm-eabi/4.6.1/../../../../arm-eabi/lib/thumb\libg.a(lib_a-envlock.o)
                0x0800e1a4                __env_lock
                0x0800e1a8                __env_unlock
 .text          0x0800e1ac       0x50 c:/users/gordon/documents/university/computer_graphics_architecture/dev/devkitpro/devkitarm/bin/../lib/gcc/arm-eabi/4.6.1/../../../../arm-eabi/lib/thumb\libsysbase.a(close.o)
                0x0800e1ac                _close_r
 .text          0x0800e1fc       0x58 c:/users/gordon/documents/university/computer_graphics_architecture/dev/devkitpro/devkitarm/bin/../lib/gcc/arm-eabi/4.6.1/../../../../arm-eabi/lib/thumb\libsysbase.a(fstat.o)
                0x0800e1fc                _fstat_r
 .text          0x0800e254        0xc c:/users/gordon/documents/university/computer_graphics_architecture/dev/devkitpro/devkitarm/bin/../lib/gcc/arm-eabi/4.6.1/../../../../arm-eabi/lib/thumb\libsysbase.a(getpid.o)
                0x0800e254                _getpid_r
 .text          0x0800e260        0x4 c:/users/gordon/documents/university/computer_graphics_architecture/dev/devkitpro/devkitarm/bin/../lib/gcc/arm-eabi/4.6.1/../../../../arm-eabi/lib/thumb\libsysbase.a(isatty.o)
                0x0800e260                _isatty_r
 .text          0x0800e264        0xc c:/users/gordon/documents/university/computer_graphics_architecture/dev/devkitpro/devkitarm/bin/../lib/gcc/arm-eabi/4.6.1/../../../../arm-eabi/lib/thumb\libsysbase.a(kill.o)
                0x0800e264                _kill_r
 .text          0x0800e270       0x54 c:/users/gordon/documents/university/computer_graphics_architecture/dev/devkitpro/devkitarm/bin/../lib/gcc/arm-eabi/4.6.1/../../../../arm-eabi/lib/thumb\libsysbase.a(lseek.o)
                0x0800e270                _lseek_r
 .text          0x0800e2c4       0x54 c:/users/gordon/documents/university/computer_graphics_architecture/dev/devkitpro/devkitarm/bin/../lib/gcc/arm-eabi/4.6.1/../../../../arm-eabi/lib/thumb\libsysbase.a(read.o)
                0x0800e2c4                _read_r
 .text          0x0800e318       0x54 c:/users/gordon/documents/university/computer_graphics_architecture/dev/devkitpro/devkitarm/bin/../lib/gcc/arm-eabi/4.6.1/../../../../arm-eabi/lib/thumb\libsysbase.a(sbrk.o)
                0x0800e318                _sbrk_r
 .text          0x0800e36c       0x54 c:/users/gordon/documents/university/computer_graphics_architecture/dev/devkitpro/devkitarm/bin/../lib/gcc/arm-eabi/4.6.1/../../../../arm-eabi/lib/thumb\libsysbase.a(write.o)
                0x0800e36c                _write_r
 .text          0x0800e3c0       0x18 c:/users/gordon/documents/university/computer_graphics_architecture/dev/devkitpro/devkitarm/bin/../lib/gcc/arm-eabi/4.6.1/../../../../arm-eabi/lib/thumb\libsysbase.a(_exit.o)
                0x0800e3c0                _exit
 .text          0x0800e3d8        0x0 c:/users/gordon/documents/university/computer_graphics_architecture/dev/devkitpro/devkitarm/bin/../lib/gcc/arm-eabi/4.6.1/../../../../arm-eabi/lib/thumb\libsysbase.a(malloc_vars.o)
 .text          0x0800e3d8        0x0 c:/users/gordon/documents/university/computer_graphics_architecture/dev/devkitpro/devkitarm/bin/../lib/gcc/arm-eabi/4.6.1/../../../../arm-eabi/lib/thumb\libsysbase.a(syscall_support.o)
 .text          0x0800e3d8       0x80 c:/users/gordon/documents/university/computer_graphics_architecture/dev/devkitpro/devkitarm/bin/../lib/gcc/arm-eabi/4.6.1/../../../../arm-eabi/lib/thumb\libsysbase.a(handle_manager.o)
                0x0800e3d8                __release_handle
                0x0800e404                __alloc_handle
                0x0800e43c                __get_handle
 .text          0x0800e458      0x144 c:/users/gordon/documents/university/computer_graphics_architecture/dev/devkitpro/devkitarm/bin/../lib/gcc/arm-eabi/4.6.1/../../../../arm-eabi/lib/thumb\libsysbase.a(iosupport.o)
                0x0800e458                setDefaultDevice
                0x0800e46c                FindDevice
                0x0800e4dc                RemoveDevice
                0x0800e500                AddDevice
                0x0800e57c                GetDeviceOpTab
 .text          0x0800e59c      0x150 c:/users/gordon/documents/university/computer_graphics_architecture/dev/devkitpro/devkitarm/bin/../lib/gcc/arm-eabi/4.6.1/thumb\libgcc.a(_divsi3.o)
                0x0800e59c                __divsi3
                0x0800e59c                __aeabi_idiv
                0x0800e6cc                __aeabi_idivmod
 .text          0x0800e6ec      0x41c c:/users/gordon/documents/university/computer_graphics_architecture/dev/devkitpro/devkitarm/bin/../lib/gcc/arm-eabi/4.6.1/thumb\libgcc.a(_arm_addsubdf3.o)
                0x0800e6ec                __aeabi_drsub
                0x0800e6f4                __aeabi_dsub
                0x0800e6f4                __subdf3
                0x0800e6f8                __aeabi_dadd
                0x0800e6f8                __adddf3
                0x0800ea08                __floatunsidf
                0x0800ea08                __aeabi_ui2d
                0x0800ea2c                __floatsidf
                0x0800ea2c                __aeabi_i2d
                0x0800ea54                __aeabi_f2d
                0x0800ea54                __extendsfdf2
                0x0800ea94                __floatundidf
                0x0800ea94                __aeabi_ul2d
                0x0800eaa8                __floatdidf
                0x0800eaa8                __aeabi_l2d
 .text          0x0800eb08      0x49c c:/users/gordon/documents/university/computer_graphics_architecture/dev/devkitpro/devkitarm/bin/../lib/gcc/arm-eabi/4.6.1/thumb\libgcc.a(_arm_muldivdf3.o)
                0x0800eb08                __aeabi_dmul
                0x0800eb08                __muldf3
                0x0800ed98                __divdf3
                0x0800ed98                __aeabi_ddiv
 .text          0x0800efa4      0x144 c:/users/gordon/documents/university/computer_graphics_architecture/dev/devkitpro/devkitarm/bin/../lib/gcc/arm-eabi/4.6.1/thumb\libgcc.a(_arm_cmpdf2.o)
                0x0800efa4                __gtdf2
                0x0800efa4                __gedf2
                0x0800efac                __ltdf2
                0x0800efac                __ledf2
                0x0800efb4                __nedf2
                0x0800efb4                __eqdf2
                0x0800efb4                __cmpdf2
                0x0800f03c                __aeabi_cdrcmple
                0x0800f058                __aeabi_cdcmpeq
                0x0800f058                __aeabi_cdcmple
                0x0800f070                __aeabi_dcmpeq
                0x0800f088                __aeabi_dcmplt
                0x0800f0a0                __aeabi_dcmple
                0x0800f0b8                __aeabi_dcmpge
                0x0800f0d0                __aeabi_dcmpgt
 .text          0x0800f0e8       0x5c c:/users/gordon/documents/university/computer_graphics_architecture/dev/devkitpro/devkitarm/bin/../lib/gcc/arm-eabi/4.6.1/thumb\libgcc.a(_arm_fixdfsi.o)
                0x0800f0e8                __aeabi_d2iz
                0x0800f0e8                __fixdfsi
 .text          0x0800f144       0x3c c:/users/gordon/documents/university/computer_graphics_architecture/dev/devkitpro/devkitarm/bin/../lib/gcc/arm-eabi/4.6.1/thumb\libgcc.a(_aeabi_uldivmod.o)
                0x0800f144                __aeabi_uldivmod
 .text          0x0800f180       0x74 c:/users/gordon/documents/university/computer_graphics_architecture/dev/devkitpro/devkitarm/bin/../lib/gcc/arm-eabi/4.6.1/thumb\libgcc.a(bpabi.o)
                0x0800f180                __gnu_ldivmod_helper
                0x0800f1bc                __gnu_uldivmod_helper
 .text          0x0800f1f4       0x4c c:/users/gordon/documents/university/computer_graphics_architecture/dev/devkitpro/devkitarm/bin/../lib/gcc/arm-eabi/4.6.1/thumb\libgcc.a(_muldi3.o)
                0x0800f1f4                __muldi3
                0x0800f1f4                __aeabi_lmul
 .text          0x0800f240      0x3c8 c:/users/gordon/documents/university/computer_graphics_architecture/dev/devkitpro/devkitarm/bin/../lib/gcc/arm-eabi/4.6.1/thumb\libgcc.a(_divdi3.o)
                0x0800f240                __divdi3
 .text          0x0800f608      0x370 c:/users/gordon/documents/university/computer_graphics_architecture/dev/devkitpro/devkitarm/bin/../lib/gcc/arm-eabi/4.6.1/thumb\libgcc.a(_udivdi3.o)
                0x0800f608                __udivdi3
 .text          0x0800f978       0x48 c:/users/gordon/documents/university/computer_graphics_architecture/dev/devkitpro/devkitarm/bin/../lib/gcc/arm-eabi/4.6.1/thumb\libgcc.a(_clzsi2.o)
                0x0800f978                __clzsi2
 .text          0x0800f9c0        0x0 c:/users/gordon/documents/university/computer_graphics_architecture/dev/devkitpro/devkitarm/bin/../lib/gcc/arm-eabi/4.6.1/thumb/crtend.o
 .text          0x0800f9c0        0x0 c:/users/gordon/documents/university/computer_graphics_architecture/dev/devkitpro/devkitarm/bin/../lib/gcc/arm-eabi/4.6.1/thumb/crtn.o
 *(.text .stub .text.* .gnu.linkonce.t.*)
 .text.startup  0x0800f9c0       0x98 main.o
                0x0800f9c0                main
 .text.startup  0x0800fa58       0x34 world.o
 .text._Znwj    0x0800fa8c       0x68 c:/users/gordon/documents/university/computer_graphics_architecture/dev/devkitpro/devkitarm/bin/../lib/gcc/arm-eabi/4.6.1/../../../../arm-eabi/lib/thumb\libstdc++.a(new_op.o)
                0x0800fa8c                operator new(unsigned int)
 .text._ZNKSt9bad_alloc4whatEv
                0x0800faf4        0x8 c:/users/gordon/documents/university/computer_graphics_architecture/dev/devkitpro/devkitarm/bin/../lib/gcc/arm-eabi/4.6.1/../../../../arm-eabi/lib/thumb\libstdc++.a(bad_alloc.o)
                0x0800faf4                std::bad_alloc::what() const
 .text._ZNSt9bad_allocD2Ev
                0x0800fafc       0x1c c:/users/gordon/documents/university/computer_graphics_architecture/dev/devkitpro/devkitarm/bin/../lib/gcc/arm-eabi/4.6.1/../../../../arm-eabi/lib/thumb\libstdc++.a(bad_alloc.o)
                0x0800fafc                std::bad_alloc::~bad_alloc()
                0x0800fafc                std::bad_alloc::~bad_alloc()
 .text._ZNSt9bad_allocD0Ev
                0x0800fb18       0x20 c:/users/gordon/documents/university/computer_graphics_architecture/dev/devkitpro/devkitarm/bin/../lib/gcc/arm-eabi/4.6.1/../../../../arm-eabi/lib/thumb\libstdc++.a(bad_alloc.o)
                0x0800fb18                std::bad_alloc::~bad_alloc()
 .text._ZdlPv   0x0800fb38       0x10 c:/users/gordon/documents/university/computer_graphics_architecture/dev/devkitpro/devkitarm/bin/../lib/gcc/arm-eabi/4.6.1/../../../../arm-eabi/lib/thumb\libstdc++.a(del_op.o)
                0x0800fb38                operator delete(void*)
 .text.__cxa_allocate_exception
                0x0800fb48       0x68 c:/users/gordon/documents/university/computer_graphics_architecture/dev/devkitpro/devkitarm/bin/../lib/gcc/arm-eabi/4.6.1/../../../../arm-eabi/lib/thumb\libstdc++.a(eh_alloc.o)
                0x0800fb48                __cxa_allocate_exception
 .text.__cxa_free_exception
                0x0800fbb0       0x3c c:/users/gordon/documents/university/computer_graphics_architecture/dev/devkitpro/devkitarm/bin/../lib/gcc/arm-eabi/4.6.1/../../../../arm-eabi/lib/thumb\libstdc++.a(eh_alloc.o)
                0x0800fbb0                __cxa_free_exception
 .text.__cxa_allocate_dependent_exception
                0x0800fbec       0x60 c:/users/gordon/documents/university/computer_graphics_architecture/dev/devkitpro/devkitarm/bin/../lib/gcc/arm-eabi/4.6.1/../../../../arm-eabi/lib/thumb\libstdc++.a(eh_alloc.o)
                0x0800fbec                __cxa_allocate_dependent_exception
 .text.__cxa_free_dependent_exception
                0x0800fc4c       0x3c c:/users/gordon/documents/university/computer_graphics_architecture/dev/devkitpro/devkitarm/bin/../lib/gcc/arm-eabi/4.6.1/../../../../arm-eabi/lib/thumb\libstdc++.a(eh_alloc.o)
                0x0800fc4c                __cxa_free_dependent_exception
 .text.__cxa_end_cleanup
                0x0800fc88        0xc c:/users/gordon/documents/university/computer_graphics_architecture/dev/devkitpro/devkitarm/bin/../lib/gcc/arm-eabi/4.6.1/../../../../arm-eabi/lib/thumb\libstdc++.a(eh_arm.o)
                0x0800fc88                __cxa_end_cleanup
 .text.__cxa_type_match
                0x0800fc94       0xfc c:/users/gordon/documents/university/computer_graphics_architecture/dev/devkitpro/devkitarm/bin/../lib/gcc/arm-eabi/4.6.1/../../../../arm-eabi/lib/thumb\libstdc++.a(eh_arm.o)
                0x0800fc94                __cxa_type_match
 .text.__cxa_begin_cleanup
                0x0800fd90       0x64 c:/users/gordon/documents/university/computer_graphics_architecture/dev/devkitpro/devkitarm/bin/../lib/gcc/arm-eabi/4.6.1/../../../../arm-eabi/lib/thumb\libstdc++.a(eh_arm.o)
                0x0800fd90                __cxa_begin_cleanup
 .text.__gnu_end_cleanup
                0x0800fdf4       0x74 c:/users/gordon/documents/university/computer_graphics_architecture/dev/devkitpro/devkitarm/bin/../lib/gcc/arm-eabi/4.6.1/../../../../arm-eabi/lib/thumb\libstdc++.a(eh_arm.o)
                0x0800fdf4                __gnu_end_cleanup
 .text.__cxa_bad_cast
                0x0800fe68       0x20 c:/users/gordon/documents/university/computer_graphics_architecture/dev/devkitpro/devkitarm/bin/../lib/gcc/arm-eabi/4.6.1/../../../../arm-eabi/lib/thumb\libstdc++.a(eh_aux_runtime.o)
                0x0800fe68                __cxa_bad_cast
 .text.__cxa_bad_typeid
                0x0800fe88       0x20 c:/users/gordon/documents/university/computer_graphics_architecture/dev/devkitpro/devkitarm/bin/../lib/gcc/arm-eabi/4.6.1/../../../../arm-eabi/lib/thumb\libstdc++.a(eh_aux_runtime.o)
                0x0800fe88                __cxa_bad_typeid
 .text.__cxa_call_terminate
                0x0800fea8       0x48 c:/users/gordon/documents/university/computer_graphics_architecture/dev/devkitpro/devkitarm/bin/../lib/gcc/arm-eabi/4.6.1/../../../../arm-eabi/lib/thumb\libstdc++.a(eh_call.o)
                0x0800fea8                __cxa_call_terminate
 .text.__cxa_call_unexpected
                0x0800fef0      0x134 c:/users/gordon/documents/university/computer_graphics_architecture/dev/devkitpro/devkitarm/bin/../lib/gcc/arm-eabi/4.6.1/../../../../arm-eabi/lib/thumb\libstdc++.a(eh_call.o)
                0x0800fef0                __cxa_call_unexpected
 .text.__cxa_get_exception_ptr
                0x08010024        0x4 c:/users/gordon/documents/university/computer_graphics_architecture/dev/devkitpro/devkitarm/bin/../lib/gcc/arm-eabi/4.6.1/../../../../arm-eabi/lib/thumb\libstdc++.a(eh_catch.o)
                0x08010024                __cxa_get_exception_ptr
 .text.__cxa_begin_catch
                0x08010028       0x88 c:/users/gordon/documents/university/computer_graphics_architecture/dev/devkitpro/devkitarm/bin/../lib/gcc/arm-eabi/4.6.1/../../../../arm-eabi/lib/thumb\libstdc++.a(eh_catch.o)
                0x08010028                __cxa_begin_catch
 .text.__cxa_end_catch
                0x080100b0       0x94 c:/users/gordon/documents/university/computer_graphics_architecture/dev/devkitpro/devkitarm/bin/../lib/gcc/arm-eabi/4.6.1/../../../../arm-eabi/lib/thumb\libstdc++.a(eh_catch.o)
                0x080100b0                __cxa_end_catch
 .text._ZSt18uncaught_exceptionv
                0x08010144       0x14 c:/users/gordon/documents/university/computer_graphics_architecture/dev/devkitpro/devkitarm/bin/../lib/gcc/arm-eabi/4.6.1/../../../../arm-eabi/lib/thumb\libstdc++.a(eh_catch.o)
                0x08010144                std::uncaught_exception()
 .text._ZNSt9exceptionD2Ev
                0x08010158        0xc c:/users/gordon/documents/university/computer_graphics_architecture/dev/devkitpro/devkitarm/bin/../lib/gcc/arm-eabi/4.6.1/../../../../arm-eabi/lib/thumb\libstdc++.a(eh_exception.o)
                0x08010158                std::exception::~exception()
                0x08010158                std::exception::~exception()
 .text._ZNSt13bad_exceptionD2Ev
                0x08010164        0xc c:/users/gordon/documents/university/computer_graphics_architecture/dev/devkitpro/devkitarm/bin/../lib/gcc/arm-eabi/4.6.1/../../../../arm-eabi/lib/thumb\libstdc++.a(eh_exception.o)
                0x08010164                std::bad_exception::~bad_exception()
                0x08010164                std::bad_exception::~bad_exception()
 .text._ZN10__cxxabiv115__forced_unwindD2Ev
                0x08010170        0xc c:/users/gordon/documents/university/computer_graphics_architecture/dev/devkitpro/devkitarm/bin/../lib/gcc/arm-eabi/4.6.1/../../../../arm-eabi/lib/thumb\libstdc++.a(eh_exception.o)
                0x08010170                __cxxabiv1::__forced_unwind::~__forced_unwind()
                0x08010170                __cxxabiv1::__forced_unwind::~__forced_unwind()
 .text._ZN10__cxxabiv119__foreign_exceptionD2Ev
                0x0801017c        0xc c:/users/gordon/documents/university/computer_graphics_architecture/dev/devkitpro/devkitarm/bin/../lib/gcc/arm-eabi/4.6.1/../../../../arm-eabi/lib/thumb\libstdc++.a(eh_exception.o)
                0x0801017c                __cxxabiv1::__foreign_exception::~__foreign_exception()
                0x0801017c                __cxxabiv1::__foreign_exception::~__foreign_exception()
 .text._ZNKSt9exception4whatEv
                0x08010188        0x8 c:/users/gordon/documents/university/computer_graphics_architecture/dev/devkitpro/devkitarm/bin/../lib/gcc/arm-eabi/4.6.1/../../../../arm-eabi/lib/thumb\libstdc++.a(eh_exception.o)
                0x08010188                std::exception::what() const
 .text._ZNKSt13bad_exception4whatEv
                0x08010190        0x8 c:/users/gordon/documents/university/computer_graphics_architecture/dev/devkitpro/devkitarm/bin/../lib/gcc/arm-eabi/4.6.1/../../../../arm-eabi/lib/thumb\libstdc++.a(eh_exception.o)
                0x08010190                std::bad_exception::what() const
 .text._ZN10__cxxabiv119__foreign_exceptionD0Ev
                0x08010198       0x1c c:/users/gordon/documents/university/computer_graphics_architecture/dev/devkitpro/devkitarm/bin/../lib/gcc/arm-eabi/4.6.1/../../../../arm-eabi/lib/thumb\libstdc++.a(eh_exception.o)
                0x08010198                __cxxabiv1::__foreign_exception::~__foreign_exception()
 .text._ZN10__cxxabiv115__forced_unwindD0Ev
                0x080101b4       0x1c c:/users/gordon/documents/university/computer_graphics_architecture/dev/devkitpro/devkitarm/bin/../lib/gcc/arm-eabi/4.6.1/../../../../arm-eabi/lib/thumb\libstdc++.a(eh_exception.o)
                0x080101b4                __cxxabiv1::__forced_unwind::~__forced_unwind()
 .text._ZNSt13bad_exceptionD0Ev
                0x080101d0       0x1c c:/users/gordon/documents/university/computer_graphics_architecture/dev/devkitpro/devkitarm/bin/../lib/gcc/arm-eabi/4.6.1/../../../../arm-eabi/lib/thumb\libstdc++.a(eh_exception.o)
                0x080101d0                std::bad_exception::~bad_exception()
 .text._ZNSt9exceptionD0Ev
                0x080101ec       0x1c c:/users/gordon/documents/university/computer_graphics_architecture/dev/devkitpro/devkitarm/bin/../lib/gcc/arm-eabi/4.6.1/../../../../arm-eabi/lib/thumb\libstdc++.a(eh_exception.o)
                0x080101ec                std::exception::~exception()
 .text.__cxa_get_globals_fast
                0x08010208        0x8 c:/users/gordon/documents/university/computer_graphics_architecture/dev/devkitpro/devkitarm/bin/../lib/gcc/arm-eabi/4.6.1/../../../../arm-eabi/lib/thumb\libstdc++.a(eh_globals.o)
                0x08010208                __cxa_get_globals_fast
 .text.__cxa_get_globals
                0x08010210        0x8 c:/users/gordon/documents/university/computer_graphics_architecture/dev/devkitpro/devkitarm/bin/../lib/gcc/arm-eabi/4.6.1/../../../../arm-eabi/lib/thumb\libstdc++.a(eh_globals.o)
                0x08010210                __cxa_get_globals
 .text._ZL12read_sleb128PKhPl
                0x08010218       0x34 c:/users/gordon/documents/university/computer_graphics_architecture/dev/devkitpro/devkitarm/bin/../lib/gcc/arm-eabi/4.6.1/../../../../arm-eabi/lib/thumb\libstdc++.a(eh_personality.o)
 .text._ZL28read_encoded_value_with_basehjPKhPj
                0x0801024c       0xdc c:/users/gordon/documents/university/computer_graphics_architecture/dev/devkitpro/devkitarm/bin/../lib/gcc/arm-eabi/4.6.1/../../../../arm-eabi/lib/thumb\libstdc++.a(eh_personality.o)
 .text._ZL21base_of_encoded_valuehP15_Unwind_Context
                0x08010328       0x4c c:/users/gordon/documents/university/computer_graphics_architecture/dev/devkitpro/devkitarm/bin/../lib/gcc/arm-eabi/4.6.1/../../../../arm-eabi/lib/thumb\libstdc++.a(eh_personality.o)
 .text._ZL17parse_lsda_headerP15_Unwind_ContextPKhP16lsda_header_info.constprop.4
                0x08010374       0x94 c:/users/gordon/documents/university/computer_graphics_architecture/dev/devkitpro/devkitarm/bin/../lib/gcc/arm-eabi/4.6.1/../../../../arm-eabi/lib/thumb\libstdc++.a(eh_personality.o)
 .text.__gxx_personality_v0
                0x08010408      0x3b0 c:/users/gordon/documents/university/computer_graphics_architecture/dev/devkitpro/devkitarm/bin/../lib/gcc/arm-eabi/4.6.1/../../../../arm-eabi/lib/thumb\libstdc++.a(eh_personality.o)
                0x08010408                __gxx_personality_v0
 .text._ZN10__cxxabiv111__terminateEPFvvE
                0x080107b8       0x2c c:/users/gordon/documents/university/computer_graphics_architecture/dev/devkitpro/devkitarm/bin/../lib/gcc/arm-eabi/4.6.1/../../../../arm-eabi/lib/thumb\libstdc++.a(eh_terminate.o)
                0x080107b8                __cxxabiv1::__terminate(void (*)())
 .text._ZSt9terminatev
                0x080107e4       0x10 c:/users/gordon/documents/university/computer_graphics_architecture/dev/devkitpro/devkitarm/bin/../lib/gcc/arm-eabi/4.6.1/../../../../arm-eabi/lib/thumb\libstdc++.a(eh_terminate.o)
                0x080107e4                std::terminate()
 .text._ZN10__cxxabiv112__unexpectedEPFvvE
                0x080107f4        0xc c:/users/gordon/documents/university/computer_graphics_architecture/dev/devkitpro/devkitarm/bin/../lib/gcc/arm-eabi/4.6.1/../../../../arm-eabi/lib/thumb\libstdc++.a(eh_terminate.o)
                0x080107f4                __cxxabiv1::__unexpected(void (*)())
 .text._ZSt10unexpectedv
                0x08010800       0x18 c:/users/gordon/documents/university/computer_graphics_architecture/dev/devkitpro/devkitarm/bin/../lib/gcc/arm-eabi/4.6.1/../../../../arm-eabi/lib/thumb\libstdc++.a(eh_terminate.o)
                0x08010800                std::unexpected()
 .text._ZSt13set_terminatePFvvE
                0x08010818       0x10 c:/users/gordon/documents/university/computer_graphics_architecture/dev/devkitpro/devkitarm/bin/../lib/gcc/arm-eabi/4.6.1/../../../../arm-eabi/lib/thumb\libstdc++.a(eh_terminate.o)
                0x08010818                std::set_terminate(void (*)())
 .text._ZSt14set_unexpectedPFvvE
                0x08010828       0x10 c:/users/gordon/documents/university/computer_graphics_architecture/dev/devkitpro/devkitarm/bin/../lib/gcc/arm-eabi/4.6.1/../../../../arm-eabi/lib/thumb\libstdc++.a(eh_terminate.o)
                0x08010828                std::set_unexpected(void (*)())
 .text._ZL23__gxx_exception_cleanup19_Unwind_Reason_CodeP21_Unwind_Control_Block
                0x08010838       0x30 c:/users/gordon/documents/university/computer_graphics_architecture/dev/devkitpro/devkitarm/bin/../lib/gcc/arm-eabi/4.6.1/../../../../arm-eabi/lib/thumb\libstdc++.a(eh_throw.o)
 .text.__cxa_throw
                0x08010868       0x64 c:/users/gordon/documents/university/computer_graphics_architecture/dev/devkitpro/devkitarm/bin/../lib/gcc/arm-eabi/4.6.1/../../../../arm-eabi/lib/thumb\libstdc++.a(eh_throw.o)
                0x08010868                __cxa_throw
 .text.__cxa_rethrow
                0x080108cc       0x70 c:/users/gordon/documents/university/computer_graphics_architecture/dev/devkitpro/devkitarm/bin/../lib/gcc/arm-eabi/4.6.1/../../../../arm-eabi/lib/thumb\libstdc++.a(eh_throw.o)
                0x080108cc                __cxa_rethrow
 .text._ZN10__cxxabiv123__fundamental_type_infoD2Ev
                0x0801093c       0x1c c:/users/gordon/documents/university/computer_graphics_architecture/dev/devkitpro/devkitarm/bin/../lib/gcc/arm-eabi/4.6.1/../../../../arm-eabi/lib/thumb\libstdc++.a(fundamental_type_info.o)
                0x0801093c                __cxxabiv1::__fundamental_type_info::~__fundamental_type_info()
                0x0801093c                __cxxabiv1::__fundamental_type_info::~__fundamental_type_info()
 .text._ZN10__cxxabiv123__fundamental_type_infoD0Ev
                0x08010958       0x20 c:/users/gordon/documents/university/computer_graphics_architecture/dev/devkitpro/devkitarm/bin/../lib/gcc/arm-eabi/4.6.1/../../../../arm-eabi/lib/thumb\libstdc++.a(fundamental_type_info.o)
                0x08010958                __cxxabiv1::__fundamental_type_info::~__fundamental_type_info()
 .text._ZSt15set_new_handlerPFvvE
                0x08010978       0x10 c:/users/gordon/documents/university/computer_graphics_architecture/dev/devkitpro/devkitarm/bin/../lib/gcc/arm-eabi/4.6.1/../../../../arm-eabi/lib/thumb\libstdc++.a(new_handler.o)
                0x08010978                std::set_new_handler(void (*)())
 .text._ZNK10__cxxabiv119__pointer_type_info14__is_pointer_pEv
                0x08010988        0x4 c:/users/gordon/documents/university/computer_graphics_architecture/dev/devkitpro/devkitarm/bin/../lib/gcc/arm-eabi/4.6.1/../../../../arm-eabi/lib/thumb\libstdc++.a(pointer_type_info.o)
                0x08010988                __cxxabiv1::__pointer_type_info::__is_pointer_p() const
 .text._ZN10__cxxabiv119__pointer_type_infoD2Ev
                0x0801098c       0x1c c:/users/gordon/documents/university/computer_graphics_architecture/dev/devkitpro/devkitarm/bin/../lib/gcc/arm-eabi/4.6.1/../../../../arm-eabi/lib/thumb\libstdc++.a(pointer_type_info.o)
                0x0801098c                __cxxabiv1::__pointer_type_info::~__pointer_type_info()
                0x0801098c                __cxxabiv1::__pointer_type_info::~__pointer_type_info()
 .text._ZN10__cxxabiv119__pointer_type_infoD0Ev
                0x080109a8       0x20 c:/users/gordon/documents/university/computer_graphics_architecture/dev/devkitpro/devkitarm/bin/../lib/gcc/arm-eabi/4.6.1/../../../../arm-eabi/lib/thumb\libstdc++.a(pointer_type_info.o)
                0x080109a8                __cxxabiv1::__pointer_type_info::~__pointer_type_info()
 .text._ZNK10__cxxabiv119__pointer_type_info15__pointer_catchEPKNS_17__pbase_type_infoEPPvj
                0x080109c8       0x4c c:/users/gordon/documents/university/computer_graphics_architecture/dev/devkitpro/devkitarm/bin/../lib/gcc/arm-eabi/4.6.1/../../../../arm-eabi/lib/thumb\libstdc++.a(pointer_type_info.o)
                0x080109c8                __cxxabiv1::__pointer_type_info::__pointer_catch(__cxxabiv1::__pbase_type_info const*, void**, unsigned int) const
 .text.__cxa_pure_virtual
                0x08010a14       0x14 c:/users/gordon/documents/university/computer_graphics_architecture/dev/devkitpro/devkitarm/bin/../lib/gcc/arm-eabi/4.6.1/../../../../arm-eabi/lib/thumb\libstdc++.a(pure.o)
                0x08010a14                __cxa_pure_virtual
 .text._ZN10__cxxabiv120__si_class_type_infoD2Ev
                0x08010a28       0x1c c:/users/gordon/documents/university/computer_graphics_architecture/dev/devkitpro/devkitarm/bin/../lib/gcc/arm-eabi/4.6.1/../../../../arm-eabi/lib/thumb\libstdc++.a(si_class_type_info.o)
                0x08010a28                __cxxabiv1::__si_class_type_info::~__si_class_type_info()
                0x08010a28                __cxxabiv1::__si_class_type_info::~__si_class_type_info()
 .text._ZN10__cxxabiv120__si_class_type_infoD0Ev
                0x08010a44       0x20 c:/users/gordon/documents/university/computer_graphics_architecture/dev/devkitpro/devkitarm/bin/../lib/gcc/arm-eabi/4.6.1/../../../../arm-eabi/lib/thumb\libstdc++.a(si_class_type_info.o)
                0x08010a44                __cxxabiv1::__si_class_type_info::~__si_class_type_info()
 .text._ZNK10__cxxabiv120__si_class_type_info11__do_upcastEPKNS_17__class_type_infoEPKvRNS1_15__upcast_resultE
                0x08010a64       0x30 c:/users/gordon/documents/university/computer_graphics_architecture/dev/devkitpro/devkitarm/bin/../lib/gcc/arm-eabi/4.6.1/../../../../arm-eabi/lib/thumb\libstdc++.a(si_class_type_info.o)
                0x08010a64                __cxxabiv1::__si_class_type_info::__do_upcast(__cxxabiv1::__class_type_info const*, void const*, __cxxabiv1::__class_type_info::__upcast_result&) const
 .text._ZNK10__cxxabiv120__si_class_type_info12__do_dyncastEiNS_17__class_type_info10__sub_kindEPKS1_PKvS4_S6_RNS1_16__dyncast_resultE
                0x08010a94       0x9c c:/users/gordon/documents/university/computer_graphics_architecture/dev/devkitpro/devkitarm/bin/../lib/gcc/arm-eabi/4.6.1/../../../../arm-eabi/lib/thumb\libstdc++.a(si_class_type_info.o)
                0x08010a94                __cxxabiv1::__si_class_type_info::__do_dyncast(int, __cxxabiv1::__class_type_info::__sub_kind, __cxxabiv1::__class_type_info const*, void const*, __cxxabiv1::__class_type_info const*, void const*, __cxxabiv1::__class_type_info::__dyncast_result&) const
 .text._ZNK10__cxxabiv120__si_class_type_info20__do_find_public_srcEiPKvPKNS_17__class_type_infoES2_
                0x08010b30       0x48 c:/users/gordon/documents/university/computer_graphics_architecture/dev/devkitpro/devkitarm/bin/../lib/gcc/arm-eabi/4.6.1/../../../../arm-eabi/lib/thumb\libstdc++.a(si_class_type_info.o)
                0x08010b30                __cxxabiv1::__si_class_type_info::__do_find_public_src(int, void const*, __cxxabiv1::__class_type_info const*, void const*) const
 .text._ZNSt9type_infoD2Ev
                0x08010b78        0xc c:/users/gordon/documents/university/computer_graphics_architecture/dev/devkitpro/devkitarm/bin/../lib/gcc/arm-eabi/4.6.1/../../../../arm-eabi/lib/thumb\libstdc++.a(tinfo.o)
                0x08010b78                std::type_info::~type_info()
                0x08010b78                std::type_info::~type_info()
 .text._ZNKSt9type_info14__is_pointer_pEv
                0x08010b84        0x4 c:/users/gordon/documents/university/computer_graphics_architecture/dev/devkitpro/devkitarm/bin/../lib/gcc/arm-eabi/4.6.1/../../../../arm-eabi/lib/thumb\libstdc++.a(tinfo.o)
                0x08010b84                std::type_info::__is_pointer_p() const
 .text._ZNKSt9type_info15__is_function_pEv
                0x08010b88        0x4 c:/users/gordon/documents/university/computer_graphics_architecture/dev/devkitpro/devkitarm/bin/../lib/gcc/arm-eabi/4.6.1/../../../../arm-eabi/lib/thumb\libstdc++.a(tinfo.o)
                0x08010b88                std::type_info::__is_function_p() const
 .text._ZNKSt9type_info11__do_upcastEPKN10__cxxabiv117__class_type_infoEPPv
                0x08010b8c        0x4 c:/users/gordon/documents/university/computer_graphics_architecture/dev/devkitpro/devkitarm/bin/../lib/gcc/arm-eabi/4.6.1/../../../../arm-eabi/lib/thumb\libstdc++.a(tinfo.o)
                0x08010b8c                std::type_info::__do_upcast(__cxxabiv1::__class_type_info const*, void**) const
 .text._ZNSt9type_infoD0Ev
                0x08010b90       0x1c c:/users/gordon/documents/university/computer_graphics_architecture/dev/devkitpro/devkitarm/bin/../lib/gcc/arm-eabi/4.6.1/../../../../arm-eabi/lib/thumb\libstdc++.a(tinfo.o)
                0x08010b90                std::type_info::~type_info()
 .text._ZNKSt9type_infoeqERKS_
                0x08010bac       0x3c c:/users/gordon/documents/university/computer_graphics_architecture/dev/devkitpro/devkitarm/bin/../lib/gcc/arm-eabi/4.6.1/../../../../arm-eabi/lib/thumb\libstdc++.a(tinfo.o)
                0x08010bac                std::type_info::operator==(std::type_info const&) const
 .text._ZNKSt9type_info10__do_catchEPKS_PPvj
                0x08010be8        0xc c:/users/gordon/documents/university/computer_graphics_architecture/dev/devkitpro/devkitarm/bin/../lib/gcc/arm-eabi/4.6.1/../../../../arm-eabi/lib/thumb\libstdc++.a(tinfo.o)
                0x08010be8                std::type_info::__do_catch(std::type_info const*, void**, unsigned int) const
 .text._ZN9__gnu_cxx27__verbose_terminate_handlerEv
                0x08010bf4      0x11c c:/users/gordon/documents/university/computer_graphics_architecture/dev/devkitpro/devkitarm/bin/../lib/gcc/arm-eabi/4.6.1/../../../../arm-eabi/lib/thumb\libstdc++.a(vterminate.o)
                0x08010bf4                __gnu_cxx::__verbose_terminate_handler()
 .text._ZNKSt8bad_cast4whatEv
                0x08010d10        0x8 c:/users/gordon/documents/university/computer_graphics_architecture/dev/devkitpro/devkitarm/bin/../lib/gcc/arm-eabi/4.6.1/../../../../arm-eabi/lib/thumb\libstdc++.a(bad_cast.o)
                0x08010d10                std::bad_cast::what() const
 .text._ZNSt8bad_castD2Ev
                0x08010d18       0x1c c:/users/gordon/documents/university/computer_graphics_architecture/dev/devkitpro/devkitarm/bin/../lib/gcc/arm-eabi/4.6.1/../../../../arm-eabi/lib/thumb\libstdc++.a(bad_cast.o)
                0x08010d18                std::bad_cast::~bad_cast()
                0x08010d18                std::bad_cast::~bad_cast()
 .text._ZNSt8bad_castD0Ev
                0x08010d34       0x20 c:/users/gordon/documents/university/computer_graphics_architecture/dev/devkitpro/devkitarm/bin/../lib/gcc/arm-eabi/4.6.1/../../../../arm-eabi/lib/thumb\libstdc++.a(bad_cast.o)
                0x08010d34                std::bad_cast::~bad_cast()
 .text._ZNKSt10bad_typeid4whatEv
                0x08010d54        0x8 c:/users/gordon/documents/university/computer_graphics_architecture/dev/devkitpro/devkitarm/bin/../lib/gcc/arm-eabi/4.6.1/../../../../arm-eabi/lib/thumb\libstdc++.a(bad_typeid.o)
                0x08010d54                std::bad_typeid::what() const
 .text._ZNSt10bad_typeidD2Ev
                0x08010d5c       0x1c c:/users/gordon/documents/university/computer_graphics_architecture/dev/devkitpro/devkitarm/bin/../lib/gcc/arm-eabi/4.6.1/../../../../arm-eabi/lib/thumb\libstdc++.a(bad_typeid.o)
                0x08010d5c                std::bad_typeid::~bad_typeid()
                0x08010d5c                std::bad_typeid::~bad_typeid()
 .text._ZNSt10bad_typeidD0Ev
                0x08010d78       0x20 c:/users/gordon/documents/university/computer_graphics_architecture/dev/devkitpro/devkitarm/bin/../lib/gcc/arm-eabi/4.6.1/../../../../arm-eabi/lib/thumb\libstdc++.a(bad_typeid.o)
                0x08010d78                std::bad_typeid::~bad_typeid()
 .text._ZNK10__cxxabiv117__class_type_info11__do_upcastEPKS0_PPv
                0x08010d98       0x40 c:/users/gordon/documents/university/computer_graphics_architecture/dev/devkitpro/devkitarm/bin/../lib/gcc/arm-eabi/4.6.1/../../../../arm-eabi/lib/thumb\libstdc++.a(class_type_info.o)
                0x08010d98                __cxxabiv1::__class_type_info::__do_upcast(__cxxabiv1::__class_type_info const*, void**) const
 .text._ZNK10__cxxabiv117__class_type_info20__do_find_public_srcEiPKvPKS0_S2_
                0x08010dd8       0x14 c:/users/gordon/documents/university/computer_graphics_architecture/dev/devkitpro/devkitarm/bin/../lib/gcc/arm-eabi/4.6.1/../../../../arm-eabi/lib/thumb\libstdc++.a(class_type_info.o)
                0x08010dd8                __cxxabiv1::__class_type_info::__do_find_public_src(int, void const*, __cxxabiv1::__class_type_info const*, void const*) const
 .text._ZNK10__cxxabiv117__class_type_info11__do_upcastEPKS0_PKvRNS0_15__upcast_resultE
                0x08010dec       0x24 c:/users/gordon/documents/university/computer_graphics_architecture/dev/devkitpro/devkitarm/bin/../lib/gcc/arm-eabi/4.6.1/../../../../arm-eabi/lib/thumb\libstdc++.a(class_type_info.o)
                0x08010dec                __cxxabiv1::__class_type_info::__do_upcast(__cxxabiv1::__class_type_info const*, void const*, __cxxabiv1::__class_type_info::__upcast_result&) const
 .text._ZN10__cxxabiv117__class_type_infoD2Ev
                0x08010e10       0x1c c:/users/gordon/documents/university/computer_graphics_architecture/dev/devkitpro/devkitarm/bin/../lib/gcc/arm-eabi/4.6.1/../../../../arm-eabi/lib/thumb\libstdc++.a(class_type_info.o)
                0x08010e10                __cxxabiv1::__class_type_info::~__class_type_info()
                0x08010e10                __cxxabiv1::__class_type_info::~__class_type_info()
 .text._ZN10__cxxabiv117__class_type_infoD0Ev
                0x08010e2c       0x20 c:/users/gordon/documents/university/computer_graphics_architecture/dev/devkitpro/devkitarm/bin/../lib/gcc/arm-eabi/4.6.1/../../../../arm-eabi/lib/thumb\libstdc++.a(class_type_info.o)
                0x08010e2c                __cxxabiv1::__class_type_info::~__class_type_info()
 .text._ZNK10__cxxabiv117__class_type_info12__do_dyncastEiNS0_10__sub_kindEPKS0_PKvS3_S5_RNS0_16__dyncast_resultE
                0x08010e4c       0x4c c:/users/gordon/documents/university/computer_graphics_architecture/dev/devkitpro/devkitarm/bin/../lib/gcc/arm-eabi/4.6.1/../../../../arm-eabi/lib/thumb\libstdc++.a(class_type_info.o)
                0x08010e4c                __cxxabiv1::__class_type_info::__do_dyncast(int, __cxxabiv1::__class_type_info::__sub_kind, __cxxabiv1::__class_type_info const*, void const*, __cxxabiv1::__class_type_info const*, void const*, __cxxabiv1::__class_type_info::__dyncast_result&) const
 .text._ZNK10__cxxabiv117__class_type_info10__do_catchEPKSt9type_infoPPvj
                0x08010e98       0x34 c:/users/gordon/documents/university/computer_graphics_architecture/dev/devkitpro/devkitarm/bin/../lib/gcc/arm-eabi/4.6.1/../../../../arm-eabi/lib/thumb\libstdc++.a(class_type_info.o)
                0x08010e98                __cxxabiv1::__class_type_info::__do_catch(std::type_info const*, void**, unsigned int) const
 .text.__cxa_current_exception_type
                0x08010ecc       0x24 c:/users/gordon/documents/university/computer_graphics_architecture/dev/devkitpro/devkitarm/bin/../lib/gcc/arm-eabi/4.6.1/../../../../arm-eabi/lib/thumb\libstdc++.a(eh_type.o)
                0x08010ecc                __cxa_current_exception_type
 .text._ZNK10__cxxabiv117__pbase_type_info15__pointer_catchEPKS0_PPvj
                0x08010ef0       0x18 c:/users/gordon/documents/university/computer_graphics_architecture/dev/devkitpro/devkitarm/bin/../lib/gcc/arm-eabi/4.6.1/../../../../arm-eabi/lib/thumb\libstdc++.a(pbase_type_info.o)
                0x08010ef0                __cxxabiv1::__pbase_type_info::__pointer_catch(__cxxabiv1::__pbase_type_info const*, void**, unsigned int) const
 .text._ZN10__cxxabiv117__pbase_type_infoD2Ev
                0x08010f08       0x1c c:/users/gordon/documents/university/computer_graphics_architecture/dev/devkitpro/devkitarm/bin/../lib/gcc/arm-eabi/4.6.1/../../../../arm-eabi/lib/thumb\libstdc++.a(pbase_type_info.o)
                0x08010f08                __cxxabiv1::__pbase_type_info::~__pbase_type_info()
                0x08010f08                __cxxabiv1::__pbase_type_info::~__pbase_type_info()
 .text._ZN10__cxxabiv117__pbase_type_infoD0Ev
                0x08010f24       0x20 c:/users/gordon/documents/university/computer_graphics_architecture/dev/devkitpro/devkitarm/bin/../lib/gcc/arm-eabi/4.6.1/../../../../arm-eabi/lib/thumb\libstdc++.a(pbase_type_info.o)
                0x08010f24                __cxxabiv1::__pbase_type_info::~__pbase_type_info()
 .text._ZNK10__cxxabiv117__pbase_type_info10__do_catchEPKSt9type_infoPPvj
                0x08010f44       0x6c c:/users/gordon/documents/university/computer_graphics_architecture/dev/devkitpro/devkitarm/bin/../lib/gcc/arm-eabi/4.6.1/../../../../arm-eabi/lib/thumb\libstdc++.a(pbase_type_info.o)
                0x08010f44                __cxxabiv1::__pbase_type_info::__do_catch(std::type_info const*, void**, unsigned int) const
 .text._ZNK10__cxxabiv117__pbase_type_info10__do_catchEPKSt9type_infoPPvj.stub
                0x08010fb0      0x11c linker stubs
 *(.text.*personality*)
 *(.gnu.warning)
 *(.glue_7t)
 .glue_7t       0x00000000        0x0 linker stubs
 *(.glue_7)
 .glue_7        0x00000000        0x0 linker stubs
 *(.vfp11_veneer)
 .vfp11_veneer  0x00000000        0x0 linker stubs
                0x080110cc                . = ALIGN (0x4)
                0x080110cc                __text_end = .

.v4_bx          0x080110d8        0x0
 .v4_bx         0x00000000        0x0 linker stubs

.fini           0x080110d8        0xc
 *(.fini)
 .fini          0x080110d8        0x4 c:/users/gordon/documents/university/computer_graphics_architecture/dev/devkitpro/devkitarm/bin/../lib/gcc/arm-eabi/4.6.1/thumb/crti.o
                0x080110d8                _fini
 .fini          0x080110dc        0x8 c:/users/gordon/documents/university/computer_graphics_architecture/dev/devkitpro/devkitarm/bin/../lib/gcc/arm-eabi/4.6.1/thumb/crtn.o
                0x080110e4                . = ALIGN (0x4)

.rodata         0x080110e8     0x6ac8
 *(.rodata)
 .rodata        0x080110e8      0x340 tiles.o
                0x080110e8                palette_bg
                0x080112e8                white_tile
                0x08011328                brown_tile
                0x08011368                green_tile
                0x080113a8                blue_tile
                0x080113e8                blank_tile
 .rodata        0x08011428     0x4000 font.o
                0x08011428                font_bold
                0x08013428                font_medium
 .rodata        0x08015428      0xe28 c:/users/gordon/documents/university/computer_graphics_architecture/dev/devkitpro/devkitarm/bin/../lib/gcc/arm-eabi/4.6.1/../../../../arm-eabi/lib/thumb\libstdc++.a(cp-demangle.o)
 .rodata        0x08016250       0x14 c:/users/gordon/documents/university/computer_graphics_architecture/dev/devkitpro/devkitarm/bin/../lib/gcc/arm-eabi/4.6.1/thumb\libgcc.a(unwind-arm.o)
 .rodata        0x08016264        0x4 c:/users/gordon/documents/university/computer_graphics_architecture/dev/devkitpro/devkitarm/bin/../lib/gcc/arm-eabi/4.6.1/../../../../arm-eabi/lib/thumb\libg.a(lib_a-impure.o)
                0x08016264                _global_impure_ptr
 .rodata        0x08016268      0x184 c:/users/gordon/documents/university/computer_graphics_architecture/dev/devkitpro/devkitarm/bin/../lib/gcc/arm-eabi/4.6.1/../../../../arm-eabi/lib/thumb\libg.a(lib_a-svfprintf.o)
 .rodata        0x080163ec       0xf0 c:/users/gordon/documents/university/computer_graphics_architecture/dev/devkitpro/devkitarm/bin/../lib/gcc/arm-eabi/4.6.1/../../../../arm-eabi/lib/thumb\libg.a(lib_a-locale.o)
 .rodata        0x080164dc       0xa8 c:/users/gordon/documents/university/computer_graphics_architecture/dev/devkitpro/devkitarm/bin/../lib/gcc/arm-eabi/4.6.1/../../../../arm-eabi/lib/thumb\libg.a(lib_a-mbtowc_r.o)
 *fill*         0x08016584        0x4 ff
 .rodata        0x08016588      0x128 c:/users/gordon/documents/university/computer_graphics_architecture/dev/devkitpro/devkitarm/bin/../lib/gcc/arm-eabi/4.6.1/../../../../arm-eabi/lib/thumb\libg.a(lib_a-mprec.o)
                0x08016598                __mprec_tens
                0x08016660                __mprec_tinytens
                0x08016688                __mprec_bigtens
 .rodata        0x080166b0      0x184 c:/users/gordon/documents/university/computer_graphics_architecture/dev/devkitpro/devkitarm/bin/../lib/gcc/arm-eabi/4.6.1/../../../../arm-eabi/lib/thumb\libg.a(lib_a-svfiprintf.o)
 .rodata        0x08016834      0x104 c:/users/gordon/documents/university/computer_graphics_architecture/dev/devkitpro/devkitarm/bin/../lib/gcc/arm-eabi/4.6.1/../../../../arm-eabi/lib/thumb\libg.a(lib_a-ctype_.o)
                0x08016834                _ctype_
 .rodata        0x08016938       0x64 c:/users/gordon/documents/university/computer_graphics_architecture/dev/devkitpro/devkitarm/bin/../lib/gcc/arm-eabi/4.6.1/../../../../arm-eabi/lib/thumb\libsysbase.a(iosupport.o)
                0x08016938                dotab_stdnull
 *all.rodata*(*)
 *(.roda)
 *(.rodata.*)
 *fill*         0x0801699c        0x4 ff
 .rodata._ZTVSt9bad_alloc
                0x080169a0       0x18 c:/users/gordon/documents/university/computer_graphics_architecture/dev/devkitpro/devkitarm/bin/../lib/gcc/arm-eabi/4.6.1/../../../../arm-eabi/lib/thumb\libstdc++.a(bad_alloc.o)
                0x080169a0                vtable for std::bad_alloc
 .rodata._ZTISt9bad_alloc
                0x080169b8        0xc c:/users/gordon/documents/university/computer_graphics_architecture/dev/devkitpro/devkitarm/bin/../lib/gcc/arm-eabi/4.6.1/../../../../arm-eabi/lib/thumb\libstdc++.a(bad_alloc.o)
                0x080169b8                typeinfo for std::bad_alloc
 .rodata.str1.4
                0x080169c4        0xf c:/users/gordon/documents/university/computer_graphics_architecture/dev/devkitpro/devkitarm/bin/../lib/gcc/arm-eabi/4.6.1/../../../../arm-eabi/lib/thumb\libstdc++.a(bad_alloc.o)
                                 0x10 (size before relaxing)
 *fill*         0x080169d3        0x1 ff
 .rodata._ZTSSt9bad_alloc
                0x080169d4       0x10 c:/users/gordon/documents/university/computer_graphics_architecture/dev/devkitpro/devkitarm/bin/../lib/gcc/arm-eabi/4.6.1/../../../../arm-eabi/lib/thumb\libstdc++.a(bad_alloc.o)
                0x080169d4                typeinfo name for std::bad_alloc
 *fill*         0x080169e4        0x4 ff
 .rodata._ZTVN10__cxxabiv115__forced_unwindE
                0x080169e8       0x18 c:/users/gordon/documents/university/computer_graphics_architecture/dev/devkitpro/devkitarm/bin/../lib/gcc/arm-eabi/4.6.1/../../../../arm-eabi/lib/thumb\libstdc++.a(eh_exception.o)
                0x080169e8                vtable for __cxxabiv1::__forced_unwind
 .rodata._ZTVSt9exception
                0x08016a00       0x18 c:/users/gordon/documents/university/computer_graphics_architecture/dev/devkitpro/devkitarm/bin/../lib/gcc/arm-eabi/4.6.1/../../../../arm-eabi/lib/thumb\libstdc++.a(eh_exception.o)
                0x08016a00                vtable for std::exception
 .rodata._ZTIN10__cxxabiv115__forced_unwindE
                0x08016a18        0x8 c:/users/gordon/documents/university/computer_graphics_architecture/dev/devkitpro/devkitarm/bin/../lib/gcc/arm-eabi/4.6.1/../../../../arm-eabi/lib/thumb\libstdc++.a(eh_exception.o)
                0x08016a18                typeinfo for __cxxabiv1::__forced_unwind
 .rodata._ZTISt9exception
                0x08016a20        0x8 c:/users/gordon/documents/university/computer_graphics_architecture/dev/devkitpro/devkitarm/bin/../lib/gcc/arm-eabi/4.6.1/../../../../arm-eabi/lib/thumb\libstdc++.a(eh_exception.o)
                0x08016a20                typeinfo for std::exception
 .rodata._ZTSSt13bad_exception
                0x08016a28       0x14 c:/users/gordon/documents/university/computer_graphics_architecture/dev/devkitpro/devkitarm/bin/../lib/gcc/arm-eabi/4.6.1/../../../../arm-eabi/lib/thumb\libstdc++.a(eh_exception.o)
                0x08016a28                typeinfo name for std::bad_exception
 .rodata.str1.4
                0x08016a3c       0x23 c:/users/gordon/documents/university/computer_graphics_architecture/dev/devkitpro/devkitarm/bin/../lib/gcc/arm-eabi/4.6.1/../../../../arm-eabi/lib/thumb\libstdc++.a(eh_exception.o)
                                 0x24 (size before relaxing)
 *fill*         0x08016a5f        0x1 ff
 .rodata._ZTSN10__cxxabiv119__foreign_exceptionE
                0x08016a60       0x24 c:/users/gordon/documents/university/computer_graphics_architecture/dev/devkitpro/devkitarm/bin/../lib/gcc/arm-eabi/4.6.1/../../../../arm-eabi/lib/thumb\libstdc++.a(eh_exception.o)
                0x08016a60                typeinfo name for __cxxabiv1::__foreign_exception
 .rodata._ZTIN10__cxxabiv119__foreign_exceptionE
                0x08016a84        0x8 c:/users/gordon/documents/university/computer_graphics_architecture/dev/devkitpro/devkitarm/bin/../lib/gcc/arm-eabi/4.6.1/../../../../arm-eabi/lib/thumb\libstdc++.a(eh_exception.o)
                0x08016a84                typeinfo for __cxxabiv1::__foreign_exception
 *fill*         0x08016a8c        0x4 ff
 .rodata._ZTVSt13bad_exception
                0x08016a90       0x18 c:/users/gordon/documents/university/computer_graphics_architecture/dev/devkitpro/devkitarm/bin/../lib/gcc/arm-eabi/4.6.1/../../../../arm-eabi/lib/thumb\libstdc++.a(eh_exception.o)
                0x08016a90                vtable for std::bad_exception
 .rodata._ZTSSt9exception
                0x08016aa8       0x10 c:/users/gordon/documents/university/computer_graphics_architecture/dev/devkitpro/devkitarm/bin/../lib/gcc/arm-eabi/4.6.1/../../../../arm-eabi/lib/thumb\libstdc++.a(eh_exception.o)
                0x08016aa8                typeinfo name for std::exception
 .rodata._ZTVN10__cxxabiv119__foreign_exceptionE
                0x08016ab8       0x18 c:/users/gordon/documents/university/computer_graphics_architecture/dev/devkitpro/devkitarm/bin/../lib/gcc/arm-eabi/4.6.1/../../../../arm-eabi/lib/thumb\libstdc++.a(eh_exception.o)
                0x08016ab8                vtable for __cxxabiv1::__foreign_exception
 .rodata._ZTSN10__cxxabiv115__forced_unwindE
                0x08016ad0       0x20 c:/users/gordon/documents/university/computer_graphics_architecture/dev/devkitpro/devkitarm/bin/../lib/gcc/arm-eabi/4.6.1/../../../../arm-eabi/lib/thumb\libstdc++.a(eh_exception.o)
                0x08016ad0                typeinfo name for __cxxabiv1::__forced_unwind
 .rodata._ZTISt13bad_exception
                0x08016af0        0xc c:/users/gordon/documents/university/computer_graphics_architecture/dev/devkitpro/devkitarm/bin/../lib/gcc/arm-eabi/4.6.1/../../../../arm-eabi/lib/thumb\libstdc++.a(eh_exception.o)
                0x08016af0                typeinfo for std::bad_exception
 .rodata._ZL28read_encoded_value_with_basehjPKhPj
                0x08016afc       0x34 c:/users/gordon/documents/university/computer_graphics_architecture/dev/devkitpro/devkitarm/bin/../lib/gcc/arm-eabi/4.6.1/../../../../arm-eabi/lib/thumb\libstdc++.a(eh_personality.o)
 .rodata._ZTIPKDn
                0x08016b30       0x10 c:/users/gordon/documents/university/computer_graphics_architecture/dev/devkitpro/devkitarm/bin/../lib/gcc/arm-eabi/4.6.1/../../../../arm-eabi/lib/thumb\libstdc++.a(fundamental_type_info.o)
                0x08016b30                typeinfo for decltype(nullptr) const*
 .rodata._ZTIPDn
                0x08016b40       0x10 c:/users/gordon/documents/university/computer_graphics_architecture/dev/devkitpro/devkitarm/bin/../lib/gcc/arm-eabi/4.6.1/../../../../arm-eabi/lib/thumb\libstdc++.a(fundamental_type_info.o)
                0x08016b40                typeinfo for decltype(nullptr)*
 .rodata._ZTIDn
                0x08016b50        0x8 c:/users/gordon/documents/university/computer_graphics_architecture/dev/devkitpro/devkitarm/bin/../lib/gcc/arm-eabi/4.6.1/../../../../arm-eabi/lib/thumb\libstdc++.a(fundamental_type_info.o)
                0x08016b50                typeinfo for decltype(nullptr)
 .rodata._ZTIPKDe
                0x08016b58       0x10 c:/users/gordon/documents/university/computer_graphics_architecture/dev/devkitpro/devkitarm/bin/../lib/gcc/arm-eabi/4.6.1/../../../../arm-eabi/lib/thumb\libstdc++.a(fundamental_type_info.o)
                0x08016b58                typeinfo for decimal128 const*
 .rodata._ZTIPDe
                0x08016b68       0x10 c:/users/gordon/documents/university/computer_graphics_architecture/dev/devkitpro/devkitarm/bin/../lib/gcc/arm-eabi/4.6.1/../../../../arm-eabi/lib/thumb\libstdc++.a(fundamental_type_info.o)
                0x08016b68                typeinfo for decimal128*
 .rodata._ZTIDe
                0x08016b78        0x8 c:/users/gordon/documents/university/computer_graphics_architecture/dev/devkitpro/devkitarm/bin/../lib/gcc/arm-eabi/4.6.1/../../../../arm-eabi/lib/thumb\libstdc++.a(fundamental_type_info.o)
                0x08016b78                typeinfo for decimal128
 .rodata._ZTIPKDd
                0x08016b80       0x10 c:/users/gordon/documents/university/computer_graphics_architecture/dev/devkitpro/devkitarm/bin/../lib/gcc/arm-eabi/4.6.1/../../../../arm-eabi/lib/thumb\libstdc++.a(fundamental_type_info.o)
                0x08016b80                typeinfo for decimal64 const*
 .rodata._ZTIPDd
                0x08016b90       0x10 c:/users/gordon/documents/university/computer_graphics_architecture/dev/devkitpro/devkitarm/bin/../lib/gcc/arm-eabi/4.6.1/../../../../arm-eabi/lib/thumb\libstdc++.a(fundamental_type_info.o)
                0x08016b90                typeinfo for decimal64*
 .rodata._ZTIDd
                0x08016ba0        0x8 c:/users/gordon/documents/university/computer_graphics_architecture/dev/devkitpro/devkitarm/bin/../lib/gcc/arm-eabi/4.6.1/../../../../arm-eabi/lib/thumb\libstdc++.a(fundamental_type_info.o)
                0x08016ba0                typeinfo for decimal64
 .rodata._ZTIPKDf
                0x08016ba8       0x10 c:/users/gordon/documents/university/computer_graphics_architecture/dev/devkitpro/devkitarm/bin/../lib/gcc/arm-eabi/4.6.1/../../../../arm-eabi/lib/thumb\libstdc++.a(fundamental_type_info.o)
                0x08016ba8                typeinfo for decimal32 const*
 .rodata._ZTIPDf
                0x08016bb8       0x10 c:/users/gordon/documents/university/computer_graphics_architecture/dev/devkitpro/devkitarm/bin/../lib/gcc/arm-eabi/4.6.1/../../../../arm-eabi/lib/thumb\libstdc++.a(fundamental_type_info.o)
                0x08016bb8                typeinfo for decimal32*
 .rodata._ZTIDf
                0x08016bc8        0x8 c:/users/gordon/documents/university/computer_graphics_architecture/dev/devkitpro/devkitarm/bin/../lib/gcc/arm-eabi/4.6.1/../../../../arm-eabi/lib/thumb\libstdc++.a(fundamental_type_info.o)
                0x08016bc8                typeinfo for decimal32
 .rodata._ZTIPKe
                0x08016bd0       0x10 c:/users/gordon/documents/university/computer_graphics_architecture/dev/devkitpro/devkitarm/bin/../lib/gcc/arm-eabi/4.6.1/../../../../arm-eabi/lib/thumb\libstdc++.a(fundamental_type_info.o)
                0x08016bd0                typeinfo for long double const*
 .rodata._ZTIPe
                0x08016be0       0x10 c:/users/gordon/documents/university/computer_graphics_architecture/dev/devkitpro/devkitarm/bin/../lib/gcc/arm-eabi/4.6.1/../../../../arm-eabi/lib/thumb\libstdc++.a(fundamental_type_info.o)
                0x08016be0                typeinfo for long double*
 .rodata._ZTIe  0x08016bf0        0x8 c:/users/gordon/documents/university/computer_graphics_architecture/dev/devkitpro/devkitarm/bin/../lib/gcc/arm-eabi/4.6.1/../../../../arm-eabi/lib/thumb\libstdc++.a(fundamental_type_info.o)
                0x08016bf0                typeinfo for long double
 .rodata._ZTIPKd
                0x08016bf8       0x10 c:/users/gordon/documents/university/computer_graphics_architecture/dev/devkitpro/devkitarm/bin/../lib/gcc/arm-eabi/4.6.1/../../../../arm-eabi/lib/thumb\libstdc++.a(fundamental_type_info.o)
                0x08016bf8                typeinfo for double const*
 .rodata._ZTIPd
                0x08016c08       0x10 c:/users/gordon/documents/university/computer_graphics_architecture/dev/devkitpro/devkitarm/bin/../lib/gcc/arm-eabi/4.6.1/../../../../arm-eabi/lib/thumb\libstdc++.a(fundamental_type_info.o)
                0x08016c08                typeinfo for double*
 .rodata._ZTId  0x08016c18        0x8 c:/users/gordon/documents/university/computer_graphics_architecture/dev/devkitpro/devkitarm/bin/../lib/gcc/arm-eabi/4.6.1/../../../../arm-eabi/lib/thumb\libstdc++.a(fundamental_type_info.o)
                0x08016c18                typeinfo for double
 .rodata._ZTIPKf
                0x08016c20       0x10 c:/users/gordon/documents/university/computer_graphics_architecture/dev/devkitpro/devkitarm/bin/../lib/gcc/arm-eabi/4.6.1/../../../../arm-eabi/lib/thumb\libstdc++.a(fundamental_type_info.o)
                0x08016c20                typeinfo for float const*
 .rodata._ZTIPf
                0x08016c30       0x10 c:/users/gordon/documents/university/computer_graphics_architecture/dev/devkitpro/devkitarm/bin/../lib/gcc/arm-eabi/4.6.1/../../../../arm-eabi/lib/thumb\libstdc++.a(fundamental_type_info.o)
                0x08016c30                typeinfo for float*
 .rodata._ZTIf  0x08016c40        0x8 c:/users/gordon/documents/university/computer_graphics_architecture/dev/devkitpro/devkitarm/bin/../lib/gcc/arm-eabi/4.6.1/../../../../arm-eabi/lib/thumb\libstdc++.a(fundamental_type_info.o)
                0x08016c40                typeinfo for float
 .rodata._ZTIPKy
                0x08016c48       0x10 c:/users/gordon/documents/university/computer_graphics_architecture/dev/devkitpro/devkitarm/bin/../lib/gcc/arm-eabi/4.6.1/../../../../arm-eabi/lib/thumb\libstdc++.a(fundamental_type_info.o)
                0x08016c48                typeinfo for unsigned long long const*
 .rodata._ZTIPy
                0x08016c58       0x10 c:/users/gordon/documents/university/computer_graphics_architecture/dev/devkitpro/devkitarm/bin/../lib/gcc/arm-eabi/4.6.1/../../../../arm-eabi/lib/thumb\libstdc++.a(fundamental_type_info.o)
                0x08016c58                typeinfo for unsigned long long*
 .rodata._ZTIy  0x08016c68        0x8 c:/users/gordon/documents/university/computer_graphics_architecture/dev/devkitpro/devkitarm/bin/../lib/gcc/arm-eabi/4.6.1/../../../../arm-eabi/lib/thumb\libstdc++.a(fundamental_type_info.o)
                0x08016c68                typeinfo for unsigned long long
 .rodata._ZTIPKx
                0x08016c70       0x10 c:/users/gordon/documents/university/computer_graphics_architecture/dev/devkitpro/devkitarm/bin/../lib/gcc/arm-eabi/4.6.1/../../../../arm-eabi/lib/thumb\libstdc++.a(fundamental_type_info.o)
                0x08016c70                typeinfo for long long const*
 .rodata._ZTIPx
                0x08016c80       0x10 c:/users/gordon/documents/university/computer_graphics_architecture/dev/devkitpro/devkitarm/bin/../lib/gcc/arm-eabi/4.6.1/../../../../arm-eabi/lib/thumb\libstdc++.a(fundamental_type_info.o)
                0x08016c80                typeinfo for long long*
 .rodata._ZTIx  0x08016c90        0x8 c:/users/gordon/documents/university/computer_graphics_architecture/dev/devkitpro/devkitarm/bin/../lib/gcc/arm-eabi/4.6.1/../../../../arm-eabi/lib/thumb\libstdc++.a(fundamental_type_info.o)
                0x08016c90                typeinfo for long long
 .rodata._ZTIPKm
                0x08016c98       0x10 c:/users/gordon/documents/university/computer_graphics_architecture/dev/devkitpro/devkitarm/bin/../lib/gcc/arm-eabi/4.6.1/../../../../arm-eabi/lib/thumb\libstdc++.a(fundamental_type_info.o)
                0x08016c98                typeinfo for unsigned long const*
 .rodata._ZTIPm
                0x08016ca8       0x10 c:/users/gordon/documents/university/computer_graphics_architecture/dev/devkitpro/devkitarm/bin/../lib/gcc/arm-eabi/4.6.1/../../../../arm-eabi/lib/thumb\libstdc++.a(fundamental_type_info.o)
                0x08016ca8                typeinfo for unsigned long*
 .rodata._ZTIm  0x08016cb8        0x8 c:/users/gordon/documents/university/computer_graphics_architecture/dev/devkitpro/devkitarm/bin/../lib/gcc/arm-eabi/4.6.1/../../../../arm-eabi/lib/thumb\libstdc++.a(fundamental_type_info.o)
                0x08016cb8                typeinfo for unsigned long
 .rodata._ZTIPKl
                0x08016cc0       0x10 c:/users/gordon/documents/university/computer_graphics_architecture/dev/devkitpro/devkitarm/bin/../lib/gcc/arm-eabi/4.6.1/../../../../arm-eabi/lib/thumb\libstdc++.a(fundamental_type_info.o)
                0x08016cc0                typeinfo for long const*
 .rodata._ZTIPl
                0x08016cd0       0x10 c:/users/gordon/documents/university/computer_graphics_architecture/dev/devkitpro/devkitarm/bin/../lib/gcc/arm-eabi/4.6.1/../../../../arm-eabi/lib/thumb\libstdc++.a(fundamental_type_info.o)
                0x08016cd0                typeinfo for long*
 .rodata._ZTIl  0x08016ce0        0x8 c:/users/gordon/documents/university/computer_graphics_architecture/dev/devkitpro/devkitarm/bin/../lib/gcc/arm-eabi/4.6.1/../../../../arm-eabi/lib/thumb\libstdc++.a(fundamental_type_info.o)
                0x08016ce0                typeinfo for long
 .rodata._ZTIPKj
                0x08016ce8       0x10 c:/users/gordon/documents/university/computer_graphics_architecture/dev/devkitpro/devkitarm/bin/../lib/gcc/arm-eabi/4.6.1/../../../../arm-eabi/lib/thumb\libstdc++.a(fundamental_type_info.o)
                0x08016ce8                typeinfo for unsigned int const*
 .rodata._ZTIPj
                0x08016cf8       0x10 c:/users/gordon/documents/university/computer_graphics_architecture/dev/devkitpro/devkitarm/bin/../lib/gcc/arm-eabi/4.6.1/../../../../arm-eabi/lib/thumb\libstdc++.a(fundamental_type_info.o)
                0x08016cf8                typeinfo for unsigned int*
 .rodata._ZTIj  0x08016d08        0x8 c:/users/gordon/documents/university/computer_graphics_architecture/dev/devkitpro/devkitarm/bin/../lib/gcc/arm-eabi/4.6.1/../../../../arm-eabi/lib/thumb\libstdc++.a(fundamental_type_info.o)
                0x08016d08                typeinfo for unsigned int
 .rodata._ZTIPKi
                0x08016d10       0x10 c:/users/gordon/documents/university/computer_graphics_architecture/dev/devkitpro/devkitarm/bin/../lib/gcc/arm-eabi/4.6.1/../../../../arm-eabi/lib/thumb\libstdc++.a(fundamental_type_info.o)
                0x08016d10                typeinfo for int const*
 .rodata._ZTIPi
                0x08016d20       0x10 c:/users/gordon/documents/university/computer_graphics_architecture/dev/devkitpro/devkitarm/bin/../lib/gcc/arm-eabi/4.6.1/../../../../arm-eabi/lib/thumb\libstdc++.a(fundamental_type_info.o)
                0x08016d20                typeinfo for int*
 .rodata._ZTIi  0x08016d30        0x8 c:/users/gordon/documents/university/computer_graphics_architecture/dev/devkitpro/devkitarm/bin/../lib/gcc/arm-eabi/4.6.1/../../../../arm-eabi/lib/thumb\libstdc++.a(fundamental_type_info.o)
                0x08016d30                typeinfo for int
 .rodata._ZTIPKt
                0x08016d38       0x10 c:/users/gordon/documents/university/computer_graphics_architecture/dev/devkitpro/devkitarm/bin/../lib/gcc/arm-eabi/4.6.1/../../../../arm-eabi/lib/thumb\libstdc++.a(fundamental_type_info.o)
                0x08016d38                typeinfo for unsigned short const*
 .rodata._ZTIPt
                0x08016d48       0x10 c:/users/gordon/documents/university/computer_graphics_architecture/dev/devkitpro/devkitarm/bin/../lib/gcc/arm-eabi/4.6.1/../../../../arm-eabi/lib/thumb\libstdc++.a(fundamental_type_info.o)
                0x08016d48                typeinfo for unsigned short*
 .rodata._ZTIt  0x08016d58        0x8 c:/users/gordon/documents/university/computer_graphics_architecture/dev/devkitpro/devkitarm/bin/../lib/gcc/arm-eabi/4.6.1/../../../../arm-eabi/lib/thumb\libstdc++.a(fundamental_type_info.o)
                0x08016d58                typeinfo for unsigned short
 .rodata._ZTIPKs
                0x08016d60       0x10 c:/users/gordon/documents/university/computer_graphics_architecture/dev/devkitpro/devkitarm/bin/../lib/gcc/arm-eabi/4.6.1/../../../../arm-eabi/lib/thumb\libstdc++.a(fundamental_type_info.o)
                0x08016d60                typeinfo for short const*
 .rodata._ZTIPs
                0x08016d70       0x10 c:/users/gordon/documents/university/computer_graphics_architecture/dev/devkitpro/devkitarm/bin/../lib/gcc/arm-eabi/4.6.1/../../../../arm-eabi/lib/thumb\libstdc++.a(fundamental_type_info.o)
                0x08016d70                typeinfo for short*
 .rodata._ZTIs  0x08016d80        0x8 c:/users/gordon/documents/university/computer_graphics_architecture/dev/devkitpro/devkitarm/bin/../lib/gcc/arm-eabi/4.6.1/../../../../arm-eabi/lib/thumb\libstdc++.a(fundamental_type_info.o)
                0x08016d80                typeinfo for short
 .rodata._ZTIPKh
                0x08016d88       0x10 c:/users/gordon/documents/university/computer_graphics_architecture/dev/devkitpro/devkitarm/bin/../lib/gcc/arm-eabi/4.6.1/../../../../arm-eabi/lib/thumb\libstdc++.a(fundamental_type_info.o)
                0x08016d88                typeinfo for unsigned char const*
 .rodata._ZTIPh
                0x08016d98       0x10 c:/users/gordon/documents/university/computer_graphics_architecture/dev/devkitpro/devkitarm/bin/../lib/gcc/arm-eabi/4.6.1/../../../../arm-eabi/lib/thumb\libstdc++.a(fundamental_type_info.o)
                0x08016d98                typeinfo for unsigned char*
 .rodata._ZTIh  0x08016da8        0x8 c:/users/gordon/documents/university/computer_graphics_architecture/dev/devkitpro/devkitarm/bin/../lib/gcc/arm-eabi/4.6.1/../../../../arm-eabi/lib/thumb\libstdc++.a(fundamental_type_info.o)
                0x08016da8                typeinfo for unsigned char
 .rodata._ZTIPKa
                0x08016db0       0x10 c:/users/gordon/documents/university/computer_graphics_architecture/dev/devkitpro/devkitarm/bin/../lib/gcc/arm-eabi/4.6.1/../../../../arm-eabi/lib/thumb\libstdc++.a(fundamental_type_info.o)
                0x08016db0                typeinfo for signed char const*
 .rodata._ZTIPa
                0x08016dc0       0x10 c:/users/gordon/documents/university/computer_graphics_architecture/dev/devkitpro/devkitarm/bin/../lib/gcc/arm-eabi/4.6.1/../../../../arm-eabi/lib/thumb\libstdc++.a(fundamental_type_info.o)
                0x08016dc0                typeinfo for signed char*
 .rodata._ZTIa  0x08016dd0        0x8 c:/users/gordon/documents/university/computer_graphics_architecture/dev/devkitpro/devkitarm/bin/../lib/gcc/arm-eabi/4.6.1/../../../../arm-eabi/lib/thumb\libstdc++.a(fundamental_type_info.o)
                0x08016dd0                typeinfo for signed char
 .rodata._ZTIPKc
                0x08016dd8       0x10 c:/users/gordon/documents/university/computer_graphics_architecture/dev/devkitpro/devkitarm/bin/../lib/gcc/arm-eabi/4.6.1/../../../../arm-eabi/lib/thumb\libstdc++.a(fundamental_type_info.o)
                0x08016dd8                typeinfo for char const*
 .rodata._ZTIPc
                0x08016de8       0x10 c:/users/gordon/documents/university/computer_graphics_architecture/dev/devkitpro/devkitarm/bin/../lib/gcc/arm-eabi/4.6.1/../../../../arm-eabi/lib/thumb\libstdc++.a(fundamental_type_info.o)
                0x08016de8                typeinfo for char*
 .rodata._ZTIc  0x08016df8        0x8 c:/users/gordon/documents/university/computer_graphics_architecture/dev/devkitpro/devkitarm/bin/../lib/gcc/arm-eabi/4.6.1/../../../../arm-eabi/lib/thumb\libstdc++.a(fundamental_type_info.o)
                0x08016df8                typeinfo for char
 .rodata._ZTIPKDi
                0x08016e00       0x10 c:/users/gordon/documents/university/computer_graphics_architecture/dev/devkitpro/devkitarm/bin/../lib/gcc/arm-eabi/4.6.1/../../../../arm-eabi/lib/thumb\libstdc++.a(fundamental_type_info.o)
                0x08016e00                typeinfo for char32_t const*
 .rodata._ZTIPDi
                0x08016e10       0x10 c:/users/gordon/documents/university/computer_graphics_architecture/dev/devkitpro/devkitarm/bin/../lib/gcc/arm-eabi/4.6.1/../../../../arm-eabi/lib/thumb\libstdc++.a(fundamental_type_info.o)
                0x08016e10                typeinfo for char32_t*
 .rodata._ZTIDi
                0x08016e20        0x8 c:/users/gordon/documents/university/computer_graphics_architecture/dev/devkitpro/devkitarm/bin/../lib/gcc/arm-eabi/4.6.1/../../../../arm-eabi/lib/thumb\libstdc++.a(fundamental_type_info.o)
                0x08016e20                typeinfo for char32_t
 .rodata._ZTIPKDs
                0x08016e28       0x10 c:/users/gordon/documents/university/computer_graphics_architecture/dev/devkitpro/devkitarm/bin/../lib/gcc/arm-eabi/4.6.1/../../../../arm-eabi/lib/thumb\libstdc++.a(fundamental_type_info.o)
                0x08016e28                typeinfo for char16_t const*
 .rodata._ZTIPDs
                0x08016e38       0x10 c:/users/gordon/documents/university/computer_graphics_architecture/dev/devkitpro/devkitarm/bin/../lib/gcc/arm-eabi/4.6.1/../../../../arm-eabi/lib/thumb\libstdc++.a(fundamental_type_info.o)
                0x08016e38                typeinfo for char16_t*
 .rodata._ZTIDs
                0x08016e48        0x8 c:/users/gordon/documents/university/computer_graphics_architecture/dev/devkitpro/devkitarm/bin/../lib/gcc/arm-eabi/4.6.1/../../../../arm-eabi/lib/thumb\libstdc++.a(fundamental_type_info.o)
                0x08016e48                typeinfo for char16_t
 .rodata._ZTIPKw
                0x08016e50       0x10 c:/users/gordon/documents/university/computer_graphics_architecture/dev/devkitpro/devkitarm/bin/../lib/gcc/arm-eabi/4.6.1/../../../../arm-eabi/lib/thumb\libstdc++.a(fundamental_type_info.o)
                0x08016e50                typeinfo for wchar_t const*
 .rodata._ZTIPw
                0x08016e60       0x10 c:/users/gordon/documents/university/computer_graphics_architecture/dev/devkitpro/devkitarm/bin/../lib/gcc/arm-eabi/4.6.1/../../../../arm-eabi/lib/thumb\libstdc++.a(fundamental_type_info.o)
                0x08016e60                typeinfo for wchar_t*
 .rodata._ZTIw  0x08016e70        0x8 c:/users/gordon/documents/university/computer_graphics_architecture/dev/devkitpro/devkitarm/bin/../lib/gcc/arm-eabi/4.6.1/../../../../arm-eabi/lib/thumb\libstdc++.a(fundamental_type_info.o)
                0x08016e70                typeinfo for wchar_t
 .rodata._ZTIPKb
                0x08016e78       0x10 c:/users/gordon/documents/university/computer_graphics_architecture/dev/devkitpro/devkitarm/bin/../lib/gcc/arm-eabi/4.6.1/../../../../arm-eabi/lib/thumb\libstdc++.a(fundamental_type_info.o)
                0x08016e78                typeinfo for bool const*
 .rodata._ZTIPb
                0x08016e88       0x10 c:/users/gordon/documents/university/computer_graphics_architecture/dev/devkitpro/devkitarm/bin/../lib/gcc/arm-eabi/4.6.1/../../../../arm-eabi/lib/thumb\libstdc++.a(fundamental_type_info.o)
                0x08016e88                typeinfo for bool*
 .rodata._ZTIb  0x08016e98        0x8 c:/users/gordon/documents/university/computer_graphics_architecture/dev/devkitpro/devkitarm/bin/../lib/gcc/arm-eabi/4.6.1/../../../../arm-eabi/lib/thumb\libstdc++.a(fundamental_type_info.o)
                0x08016e98                typeinfo for bool
 .rodata._ZTIPKv
                0x08016ea0       0x10 c:/users/gordon/documents/university/computer_graphics_architecture/dev/devkitpro/devkitarm/bin/../lib/gcc/arm-eabi/4.6.1/../../../../arm-eabi/lib/thumb\libstdc++.a(fundamental_type_info.o)
                0x08016ea0                typeinfo for void const*
 .rodata._ZTIPv
                0x08016eb0       0x10 c:/users/gordon/documents/university/computer_graphics_architecture/dev/devkitpro/devkitarm/bin/../lib/gcc/arm-eabi/4.6.1/../../../../arm-eabi/lib/thumb\libstdc++.a(fundamental_type_info.o)
                0x08016eb0                typeinfo for void*
 .rodata._ZTIv  0x08016ec0        0x8 c:/users/gordon/documents/university/computer_graphics_architecture/dev/devkitpro/devkitarm/bin/../lib/gcc/arm-eabi/4.6.1/../../../../arm-eabi/lib/thumb\libstdc++.a(fundamental_type_info.o)
                0x08016ec0                typeinfo for void
 .rodata._ZTSPKDn
                0x08016ec8        0x8 c:/users/gordon/documents/university/computer_graphics_architecture/dev/devkitpro/devkitarm/bin/../lib/gcc/arm-eabi/4.6.1/../../../../arm-eabi/lib/thumb\libstdc++.a(fundamental_type_info.o)
                0x08016ec8                typeinfo name for decltype(nullptr) const*
 .rodata._ZTSPDn
                0x08016ed0        0x4 c:/users/gordon/documents/university/computer_graphics_architecture/dev/devkitpro/devkitarm/bin/../lib/gcc/arm-eabi/4.6.1/../../../../arm-eabi/lib/thumb\libstdc++.a(fundamental_type_info.o)
                0x08016ed0                typeinfo name for decltype(nullptr)*
 .rodata._ZTSDn
                0x08016ed4        0x4 c:/users/gordon/documents/university/computer_graphics_architecture/dev/devkitpro/devkitarm/bin/../lib/gcc/arm-eabi/4.6.1/../../../../arm-eabi/lib/thumb\libstdc++.a(fundamental_type_info.o)
                0x08016ed4                typeinfo name for decltype(nullptr)
 .rodata._ZTSPKDe
                0x08016ed8        0x8 c:/users/gordon/documents/university/computer_graphics_architecture/dev/devkitpro/devkitarm/bin/../lib/gcc/arm-eabi/4.6.1/../../../../arm-eabi/lib/thumb\libstdc++.a(fundamental_type_info.o)
                0x08016ed8                typeinfo name for decimal128 const*
 .rodata._ZTSPDe
                0x08016ee0        0x4 c:/users/gordon/documents/university/computer_graphics_architecture/dev/devkitpro/devkitarm/bin/../lib/gcc/arm-eabi/4.6.1/../../../../arm-eabi/lib/thumb\libstdc++.a(fundamental_type_info.o)
                0x08016ee0                typeinfo name for decimal128*
 .rodata._ZTSDe
                0x08016ee4        0x4 c:/users/gordon/documents/university/computer_graphics_architecture/dev/devkitpro/devkitarm/bin/../lib/gcc/arm-eabi/4.6.1/../../../../arm-eabi/lib/thumb\libstdc++.a(fundamental_type_info.o)
                0x08016ee4                typeinfo name for decimal128
 .rodata._ZTSPKDd
                0x08016ee8        0x8 c:/users/gordon/documents/university/computer_graphics_architecture/dev/devkitpro/devkitarm/bin/../lib/gcc/arm-eabi/4.6.1/../../../../arm-eabi/lib/thumb\libstdc++.a(fundamental_type_info.o)
                0x08016ee8                typeinfo name for decimal64 const*
 .rodata._ZTSPDd
                0x08016ef0        0x4 c:/users/gordon/documents/university/computer_graphics_architecture/dev/devkitpro/devkitarm/bin/../lib/gcc/arm-eabi/4.6.1/../../../../arm-eabi/lib/thumb\libstdc++.a(fundamental_type_info.o)
                0x08016ef0                typeinfo name for decimal64*
 .rodata._ZTSDd
                0x08016ef4        0x4 c:/users/gordon/documents/university/computer_graphics_architecture/dev/devkitpro/devkitarm/bin/../lib/gcc/arm-eabi/4.6.1/../../../../arm-eabi/lib/thumb\libstdc++.a(fundamental_type_info.o)
                0x08016ef4                typeinfo name for decimal64
 .rodata._ZTSPKDf
                0x08016ef8        0x8 c:/users/gordon/documents/university/computer_graphics_architecture/dev/devkitpro/devkitarm/bin/../lib/gcc/arm-eabi/4.6.1/../../../../arm-eabi/lib/thumb\libstdc++.a(fundamental_type_info.o)
                0x08016ef8                typeinfo name for decimal32 const*
 .rodata._ZTSPDf
                0x08016f00        0x4 c:/users/gordon/documents/university/computer_graphics_architecture/dev/devkitpro/devkitarm/bin/../lib/gcc/arm-eabi/4.6.1/../../../../arm-eabi/lib/thumb\libstdc++.a(fundamental_type_info.o)
                0x08016f00                typeinfo name for decimal32*
 .rodata._ZTSDf
                0x08016f04        0x4 c:/users/gordon/documents/university/computer_graphics_architecture/dev/devkitpro/devkitarm/bin/../lib/gcc/arm-eabi/4.6.1/../../../../arm-eabi/lib/thumb\libstdc++.a(fundamental_type_info.o)
                0x08016f04                typeinfo name for decimal32
 .rodata._ZTSPKe
                0x08016f08        0x4 c:/users/gordon/documents/university/computer_graphics_architecture/dev/devkitpro/devkitarm/bin/../lib/gcc/arm-eabi/4.6.1/../../../../arm-eabi/lib/thumb\libstdc++.a(fundamental_type_info.o)
                0x08016f08                typeinfo name for long double const*
 .rodata._ZTSPe
                0x08016f0c        0x4 c:/users/gordon/documents/university/computer_graphics_architecture/dev/devkitpro/devkitarm/bin/../lib/gcc/arm-eabi/4.6.1/../../../../arm-eabi/lib/thumb\libstdc++.a(fundamental_type_info.o)
                0x08016f0c                typeinfo name for long double*
 .rodata._ZTSe  0x08016f10        0x4 c:/users/gordon/documents/university/computer_graphics_architecture/dev/devkitpro/devkitarm/bin/../lib/gcc/arm-eabi/4.6.1/../../../../arm-eabi/lib/thumb\libstdc++.a(fundamental_type_info.o)
                0x08016f10                typeinfo name for long double
 .rodata._ZTSPKd
                0x08016f14        0x4 c:/users/gordon/documents/university/computer_graphics_architecture/dev/devkitpro/devkitarm/bin/../lib/gcc/arm-eabi/4.6.1/../../../../arm-eabi/lib/thumb\libstdc++.a(fundamental_type_info.o)
                0x08016f14                typeinfo name for double const*
 .rodata._ZTSPd
                0x08016f18        0x4 c:/users/gordon/documents/university/computer_graphics_architecture/dev/devkitpro/devkitarm/bin/../lib/gcc/arm-eabi/4.6.1/../../../../arm-eabi/lib/thumb\libstdc++.a(fundamental_type_info.o)
                0x08016f18                typeinfo name for double*
 .rodata._ZTSd  0x08016f1c        0x4 c:/users/gordon/documents/university/computer_graphics_architecture/dev/devkitpro/devkitarm/bin/../lib/gcc/arm-eabi/4.6.1/../../../../arm-eabi/lib/thumb\libstdc++.a(fundamental_type_info.o)
                0x08016f1c                typeinfo name for double
 .rodata._ZTSPKf
                0x08016f20        0x4 c:/users/gordon/documents/university/computer_graphics_architecture/dev/devkitpro/devkitarm/bin/../lib/gcc/arm-eabi/4.6.1/../../../../arm-eabi/lib/thumb\libstdc++.a(fundamental_type_info.o)
                0x08016f20                typeinfo name for float const*
 .rodata._ZTSPf
                0x08016f24        0x4 c:/users/gordon/documents/university/computer_graphics_architecture/dev/devkitpro/devkitarm/bin/../lib/gcc/arm-eabi/4.6.1/../../../../arm-eabi/lib/thumb\libstdc++.a(fundamental_type_info.o)
                0x08016f24                typeinfo name for float*
 .rodata._ZTSf  0x08016f28        0x4 c:/users/gordon/documents/university/computer_graphics_architecture/dev/devkitpro/devkitarm/bin/../lib/gcc/arm-eabi/4.6.1/../../../../arm-eabi/lib/thumb\libstdc++.a(fundamental_type_info.o)
                0x08016f28                typeinfo name for float
 .rodata._ZTSPKy
                0x08016f2c        0x4 c:/users/gordon/documents/university/computer_graphics_architecture/dev/devkitpro/devkitarm/bin/../lib/gcc/arm-eabi/4.6.1/../../../../arm-eabi/lib/thumb\libstdc++.a(fundamental_type_info.o)
                0x08016f2c                typeinfo name for unsigned long long const*
 .rodata._ZTSPy
                0x08016f30        0x4 c:/users/gordon/documents/university/computer_graphics_architecture/dev/devkitpro/devkitarm/bin/../lib/gcc/arm-eabi/4.6.1/../../../../arm-eabi/lib/thumb\libstdc++.a(fundamental_type_info.o)
                0x08016f30                typeinfo name for unsigned long long*
 .rodata._ZTSy  0x08016f34        0x4 c:/users/gordon/documents/university/computer_graphics_architecture/dev/devkitpro/devkitarm/bin/../lib/gcc/arm-eabi/4.6.1/../../../../arm-eabi/lib/thumb\libstdc++.a(fundamental_type_info.o)
                0x08016f34                typeinfo name for unsigned long long
 .rodata._ZTSPKx
                0x08016f38        0x4 c:/users/gordon/documents/university/computer_graphics_architecture/dev/devkitpro/devkitarm/bin/../lib/gcc/arm-eabi/4.6.1/../../../../arm-eabi/lib/thumb\libstdc++.a(fundamental_type_info.o)
                0x08016f38                typeinfo name for long long const*
 .rodata._ZTSPx
                0x08016f3c        0x4 c:/users/gordon/documents/university/computer_graphics_architecture/dev/devkitpro/devkitarm/bin/../lib/gcc/arm-eabi/4.6.1/../../../../arm-eabi/lib/thumb\libstdc++.a(fundamental_type_info.o)
                0x08016f3c                typeinfo name for long long*
 .rodata._ZTSx  0x08016f40        0x4 c:/users/gordon/documents/university/computer_graphics_architecture/dev/devkitpro/devkitarm/bin/../lib/gcc/arm-eabi/4.6.1/../../../../arm-eabi/lib/thumb\libstdc++.a(fundamental_type_info.o)
                0x08016f40                typeinfo name for long long
 .rodata._ZTSPKm
                0x08016f44        0x4 c:/users/gordon/documents/university/computer_graphics_architecture/dev/devkitpro/devkitarm/bin/../lib/gcc/arm-eabi/4.6.1/../../../../arm-eabi/lib/thumb\libstdc++.a(fundamental_type_info.o)
                0x08016f44                typeinfo name for unsigned long const*
 .rodata._ZTSPm
                0x08016f48        0x4 c:/users/gordon/documents/university/computer_graphics_architecture/dev/devkitpro/devkitarm/bin/../lib/gcc/arm-eabi/4.6.1/../../../../arm-eabi/lib/thumb\libstdc++.a(fundamental_type_info.o)
                0x08016f48                typeinfo name for unsigned long*
 .rodata._ZTSm  0x08016f4c        0x4 c:/users/gordon/documents/university/computer_graphics_architecture/dev/devkitpro/devkitarm/bin/../lib/gcc/arm-eabi/4.6.1/../../../../arm-eabi/lib/thumb\libstdc++.a(fundamental_type_info.o)
                0x08016f4c                typeinfo name for unsigned long
 .rodata._ZTSPKl
                0x08016f50        0x4 c:/users/gordon/documents/university/computer_graphics_architecture/dev/devkitpro/devkitarm/bin/../lib/gcc/arm-eabi/4.6.1/../../../../arm-eabi/lib/thumb\libstdc++.a(fundamental_type_info.o)
                0x08016f50                typeinfo name for long const*
 .rodata._ZTSPl
                0x08016f54        0x4 c:/users/gordon/documents/university/computer_graphics_architecture/dev/devkitpro/devkitarm/bin/../lib/gcc/arm-eabi/4.6.1/../../../../arm-eabi/lib/thumb\libstdc++.a(fundamental_type_info.o)
                0x08016f54                typeinfo name for long*
 .rodata._ZTSl  0x08016f58        0x4 c:/users/gordon/documents/university/computer_graphics_architecture/dev/devkitpro/devkitarm/bin/../lib/gcc/arm-eabi/4.6.1/../../../../arm-eabi/lib/thumb\libstdc++.a(fundamental_type_info.o)
                0x08016f58                typeinfo name for long
 .rodata._ZTSPKj
                0x08016f5c        0x4 c:/users/gordon/documents/university/computer_graphics_architecture/dev/devkitpro/devkitarm/bin/../lib/gcc/arm-eabi/4.6.1/../../../../arm-eabi/lib/thumb\libstdc++.a(fundamental_type_info.o)
                0x08016f5c                typeinfo name for unsigned int const*
 .rodata._ZTSPj
                0x08016f60        0x4 c:/users/gordon/documents/university/computer_graphics_architecture/dev/devkitpro/devkitarm/bin/../lib/gcc/arm-eabi/4.6.1/../../../../arm-eabi/lib/thumb\libstdc++.a(fundamental_type_info.o)
                0x08016f60                typeinfo name for unsigned int*
 .rodata._ZTSj  0x08016f64        0x4 c:/users/gordon/documents/university/computer_graphics_architecture/dev/devkitpro/devkitarm/bin/../lib/gcc/arm-eabi/4.6.1/../../../../arm-eabi/lib/thumb\libstdc++.a(fundamental_type_info.o)
                0x08016f64                typeinfo name for unsigned int
 .rodata._ZTSPKi
                0x08016f68        0x4 c:/users/gordon/documents/university/computer_graphics_architecture/dev/devkitpro/devkitarm/bin/../lib/gcc/arm-eabi/4.6.1/../../../../arm-eabi/lib/thumb\libstdc++.a(fundamental_type_info.o)
                0x08016f68                typeinfo name for int const*
 .rodata._ZTSPi
                0x08016f6c        0x4 c:/users/gordon/documents/university/computer_graphics_architecture/dev/devkitpro/devkitarm/bin/../lib/gcc/arm-eabi/4.6.1/../../../../arm-eabi/lib/thumb\libstdc++.a(fundamental_type_info.o)
                0x08016f6c                typeinfo name for int*
 .rodata._ZTSi  0x08016f70        0x4 c:/users/gordon/documents/university/computer_graphics_architecture/dev/devkitpro/devkitarm/bin/../lib/gcc/arm-eabi/4.6.1/../../../../arm-eabi/lib/thumb\libstdc++.a(fundamental_type_info.o)
                0x08016f70                typeinfo name for int
 .rodata._ZTSPKt
                0x08016f74        0x4 c:/users/gordon/documents/university/computer_graphics_architecture/dev/devkitpro/devkitarm/bin/../lib/gcc/arm-eabi/4.6.1/../../../../arm-eabi/lib/thumb\libstdc++.a(fundamental_type_info.o)
                0x08016f74                typeinfo name for unsigned short const*
 .rodata._ZTSPt
                0x08016f78        0x4 c:/users/gordon/documents/university/computer_graphics_architecture/dev/devkitpro/devkitarm/bin/../lib/gcc/arm-eabi/4.6.1/../../../../arm-eabi/lib/thumb\libstdc++.a(fundamental_type_info.o)
                0x08016f78                typeinfo name for unsigned short*
 .rodata._ZTSt  0x08016f7c        0x4 c:/users/gordon/documents/university/computer_graphics_architecture/dev/devkitpro/devkitarm/bin/../lib/gcc/arm-eabi/4.6.1/../../../../arm-eabi/lib/thumb\libstdc++.a(fundamental_type_info.o)
                0x08016f7c                typeinfo name for unsigned short
 .rodata._ZTSPKs
                0x08016f80        0x4 c:/users/gordon/documents/university/computer_graphics_architecture/dev/devkitpro/devkitarm/bin/../lib/gcc/arm-eabi/4.6.1/../../../../arm-eabi/lib/thumb\libstdc++.a(fundamental_type_info.o)
                0x08016f80                typeinfo name for short const*
 .rodata._ZTSPs
                0x08016f84        0x4 c:/users/gordon/documents/university/computer_graphics_architecture/dev/devkitpro/devkitarm/bin/../lib/gcc/arm-eabi/4.6.1/../../../../arm-eabi/lib/thumb\libstdc++.a(fundamental_type_info.o)
                0x08016f84                typeinfo name for short*
 .rodata._ZTSs  0x08016f88        0x4 c:/users/gordon/documents/university/computer_graphics_architecture/dev/devkitpro/devkitarm/bin/../lib/gcc/arm-eabi/4.6.1/../../../../arm-eabi/lib/thumb\libstdc++.a(fundamental_type_info.o)
                0x08016f88                typeinfo name for short
 .rodata._ZTSPKh
                0x08016f8c        0x4 c:/users/gordon/documents/university/computer_graphics_architecture/dev/devkitpro/devkitarm/bin/../lib/gcc/arm-eabi/4.6.1/../../../../arm-eabi/lib/thumb\libstdc++.a(fundamental_type_info.o)
                0x08016f8c                typeinfo name for unsigned char const*
 .rodata._ZTSPh
                0x08016f90        0x4 c:/users/gordon/documents/university/computer_graphics_architecture/dev/devkitpro/devkitarm/bin/../lib/gcc/arm-eabi/4.6.1/../../../../arm-eabi/lib/thumb\libstdc++.a(fundamental_type_info.o)
                0x08016f90                typeinfo name for unsigned char*
 .rodata._ZTSh  0x08016f94        0x4 c:/users/gordon/documents/university/computer_graphics_architecture/dev/devkitpro/devkitarm/bin/../lib/gcc/arm-eabi/4.6.1/../../../../arm-eabi/lib/thumb\libstdc++.a(fundamental_type_info.o)
                0x08016f94                typeinfo name for unsigned char
 .rodata._ZTSPKa
                0x08016f98        0x4 c:/users/gordon/documents/university/computer_graphics_architecture/dev/devkitpro/devkitarm/bin/../lib/gcc/arm-eabi/4.6.1/../../../../arm-eabi/lib/thumb\libstdc++.a(fundamental_type_info.o)
                0x08016f98                typeinfo name for signed char const*
 .rodata._ZTSPa
                0x08016f9c        0x4 c:/users/gordon/documents/university/computer_graphics_architecture/dev/devkitpro/devkitarm/bin/../lib/gcc/arm-eabi/4.6.1/../../../../arm-eabi/lib/thumb\libstdc++.a(fundamental_type_info.o)
                0x08016f9c                typeinfo name for signed char*
 .rodata._ZTSa  0x08016fa0        0x4 c:/users/gordon/documents/university/computer_graphics_architecture/dev/devkitpro/devkitarm/bin/../lib/gcc/arm-eabi/4.6.1/../../../../arm-eabi/lib/thumb\libstdc++.a(fundamental_type_info.o)
                0x08016fa0                typeinfo name for signed char
 .rodata._ZTSPKc
                0x08016fa4        0x4 c:/users/gordon/documents/university/computer_graphics_architecture/dev/devkitpro/devkitarm/bin/../lib/gcc/arm-eabi/4.6.1/../../../../arm-eabi/lib/thumb\libstdc++.a(fundamental_type_info.o)
                0x08016fa4                typeinfo name for char const*
 .rodata._ZTSPc
                0x08016fa8        0x4 c:/users/gordon/documents/university/computer_graphics_architecture/dev/devkitpro/devkitarm/bin/../lib/gcc/arm-eabi/4.6.1/../../../../arm-eabi/lib/thumb\libstdc++.a(fundamental_type_info.o)
                0x08016fa8                typeinfo name for char*
 .rodata._ZTSc  0x08016fac        0x4 c:/users/gordon/documents/university/computer_graphics_architecture/dev/devkitpro/devkitarm/bin/../lib/gcc/arm-eabi/4.6.1/../../../../arm-eabi/lib/thumb\libstdc++.a(fundamental_type_info.o)
                0x08016fac                typeinfo name for char
 .rodata._ZTSPKDi
                0x08016fb0        0x8 c:/users/gordon/documents/university/computer_graphics_architecture/dev/devkitpro/devkitarm/bin/../lib/gcc/arm-eabi/4.6.1/../../../../arm-eabi/lib/thumb\libstdc++.a(fundamental_type_info.o)
                0x08016fb0                typeinfo name for char32_t const*
 .rodata._ZTSPDi
                0x08016fb8        0x4 c:/users/gordon/documents/university/computer_graphics_architecture/dev/devkitpro/devkitarm/bin/../lib/gcc/arm-eabi/4.6.1/../../../../arm-eabi/lib/thumb\libstdc++.a(fundamental_type_info.o)
                0x08016fb8                typeinfo name for char32_t*
 .rodata._ZTSDi
                0x08016fbc        0x4 c:/users/gordon/documents/university/computer_graphics_architecture/dev/devkitpro/devkitarm/bin/../lib/gcc/arm-eabi/4.6.1/../../../../arm-eabi/lib/thumb\libstdc++.a(fundamental_type_info.o)
                0x08016fbc                typeinfo name for char32_t
 .rodata._ZTSPKDs
                0x08016fc0        0x8 c:/users/gordon/documents/university/computer_graphics_architecture/dev/devkitpro/devkitarm/bin/../lib/gcc/arm-eabi/4.6.1/../../../../arm-eabi/lib/thumb\libstdc++.a(fundamental_type_info.o)
                0x08016fc0                typeinfo name for char16_t const*
 .rodata._ZTSPDs
                0x08016fc8        0x4 c:/users/gordon/documents/university/computer_graphics_architecture/dev/devkitpro/devkitarm/bin/../lib/gcc/arm-eabi/4.6.1/../../../../arm-eabi/lib/thumb\libstdc++.a(fundamental_type_info.o)
                0x08016fc8                typeinfo name for char16_t*
 .rodata._ZTSDs
                0x08016fcc        0x4 c:/users/gordon/documents/university/computer_graphics_architecture/dev/devkitpro/devkitarm/bin/../lib/gcc/arm-eabi/4.6.1/../../../../arm-eabi/lib/thumb\libstdc++.a(fundamental_type_info.o)
                0x08016fcc                typeinfo name for char16_t
 .rodata._ZTSPKw
                0x08016fd0        0x4 c:/users/gordon/documents/university/computer_graphics_architecture/dev/devkitpro/devkitarm/bin/../lib/gcc/arm-eabi/4.6.1/../../../../arm-eabi/lib/thumb\libstdc++.a(fundamental_type_info.o)
                0x08016fd0                typeinfo name for wchar_t const*
 .rodata._ZTSPw
                0x08016fd4        0x4 c:/users/gordon/documents/university/computer_graphics_architecture/dev/devkitpro/devkitarm/bin/../lib/gcc/arm-eabi/4.6.1/../../../../arm-eabi/lib/thumb\libstdc++.a(fundamental_type_info.o)
                0x08016fd4                typeinfo name for wchar_t*
 .rodata._ZTSw  0x08016fd8        0x4 c:/users/gordon/documents/university/computer_graphics_architecture/dev/devkitpro/devkitarm/bin/../lib/gcc/arm-eabi/4.6.1/../../../../arm-eabi/lib/thumb\libstdc++.a(fundamental_type_info.o)
                0x08016fd8                typeinfo name for wchar_t
 .rodata._ZTSPKb
                0x08016fdc        0x4 c:/users/gordon/documents/university/computer_graphics_architecture/dev/devkitpro/devkitarm/bin/../lib/gcc/arm-eabi/4.6.1/../../../../arm-eabi/lib/thumb\libstdc++.a(fundamental_type_info.o)
                0x08016fdc                typeinfo name for bool const*
 .rodata._ZTSPb
                0x08016fe0        0x4 c:/users/gordon/documents/university/computer_graphics_architecture/dev/devkitpro/devkitarm/bin/../lib/gcc/arm-eabi/4.6.1/../../../../arm-eabi/lib/thumb\libstdc++.a(fundamental_type_info.o)
                0x08016fe0                typeinfo name for bool*
 .rodata._ZTSb  0x08016fe4        0x4 c:/users/gordon/documents/university/computer_graphics_architecture/dev/devkitpro/devkitarm/bin/../lib/gcc/arm-eabi/4.6.1/../../../../arm-eabi/lib/thumb\libstdc++.a(fundamental_type_info.o)
                0x08016fe4                typeinfo name for bool
 .rodata._ZTSPKv
                0x08016fe8        0x4 c:/users/gordon/documents/university/computer_graphics_architecture/dev/devkitpro/devkitarm/bin/../lib/gcc/arm-eabi/4.6.1/../../../../arm-eabi/lib/thumb\libstdc++.a(fundamental_type_info.o)
                0x08016fe8                typeinfo name for void const*
 .rodata._ZTSPv
                0x08016fec        0x4 c:/users/gordon/documents/university/computer_graphics_architecture/dev/devkitpro/devkitarm/bin/../lib/gcc/arm-eabi/4.6.1/../../../../arm-eabi/lib/thumb\libstdc++.a(fundamental_type_info.o)
                0x08016fec                typeinfo name for void*
 .rodata._ZTSv  0x08016ff0        0x4 c:/users/gordon/documents/university/computer_graphics_architecture/dev/devkitpro/devkitarm/bin/../lib/gcc/arm-eabi/4.6.1/../../../../arm-eabi/lib/thumb\libstdc++.a(fundamental_type_info.o)
                0x08016ff0                typeinfo name for void
 .rodata._ZTIN10__cxxabiv123__fundamental_type_infoE
                0x08016ff4        0xc c:/users/gordon/documents/university/computer_graphics_architecture/dev/devkitpro/devkitarm/bin/../lib/gcc/arm-eabi/4.6.1/../../../../arm-eabi/lib/thumb\libstdc++.a(fundamental_type_info.o)
                0x08016ff4                typeinfo for __cxxabiv1::__fundamental_type_info
 .rodata._ZTSN10__cxxabiv123__fundamental_type_infoE
                0x08017000       0x28 c:/users/gordon/documents/university/computer_graphics_architecture/dev/devkitpro/devkitarm/bin/../lib/gcc/arm-eabi/4.6.1/../../../../arm-eabi/lib/thumb\libstdc++.a(fundamental_type_info.o)
                0x08017000                typeinfo name for __cxxabiv1::__fundamental_type_info
 .rodata._ZTVN10__cxxabiv123__fundamental_type_infoE
                0x08017028       0x20 c:/users/gordon/documents/university/computer_graphics_architecture/dev/devkitpro/devkitarm/bin/../lib/gcc/arm-eabi/4.6.1/../../../../arm-eabi/lib/thumb\libstdc++.a(fundamental_type_info.o)
                0x08017028                vtable for __cxxabiv1::__fundamental_type_info
 .rodata._ZSt7nothrow
                0x08017048        0x4 c:/users/gordon/documents/university/computer_graphics_architecture/dev/devkitpro/devkitarm/bin/../lib/gcc/arm-eabi/4.6.1/../../../../arm-eabi/lib/thumb\libstdc++.a(new_handler.o)
                0x08017048                std::nothrow
 .rodata._ZTSN10__cxxabiv119__pointer_type_infoE
                0x0801704c       0x24 c:/users/gordon/documents/university/computer_graphics_architecture/dev/devkitpro/devkitarm/bin/../lib/gcc/arm-eabi/4.6.1/../../../../arm-eabi/lib/thumb\libstdc++.a(pointer_type_info.o)
                0x0801704c                typeinfo name for __cxxabiv1::__pointer_type_info
 .rodata._ZTIN10__cxxabiv119__pointer_type_infoE
                0x08017070        0xc c:/users/gordon/documents/university/computer_graphics_architecture/dev/devkitpro/devkitarm/bin/../lib/gcc/arm-eabi/4.6.1/../../../../arm-eabi/lib/thumb\libstdc++.a(pointer_type_info.o)
                0x08017070                typeinfo for __cxxabiv1::__pointer_type_info
 *fill*         0x0801707c        0x4 ff
 .rodata._ZTVN10__cxxabiv119__pointer_type_infoE
                0x08017080       0x28 c:/users/gordon/documents/university/computer_graphics_architecture/dev/devkitpro/devkitarm/bin/../lib/gcc/arm-eabi/4.6.1/../../../../arm-eabi/lib/thumb\libstdc++.a(pointer_type_info.o)
                0x08017080                vtable for __cxxabiv1::__pointer_type_info
 .rodata.str1.4
                0x080170a8       0x1c c:/users/gordon/documents/university/computer_graphics_architecture/dev/devkitpro/devkitarm/bin/../lib/gcc/arm-eabi/4.6.1/../../../../arm-eabi/lib/thumb\libstdc++.a(pure.o)
 *fill*         0x080170c4        0x4 ff
 .rodata._ZTVN10__cxxabiv120__si_class_type_infoE
                0x080170c8       0x30 c:/users/gordon/documents/university/computer_graphics_architecture/dev/devkitpro/devkitarm/bin/../lib/gcc/arm-eabi/4.6.1/../../../../arm-eabi/lib/thumb\libstdc++.a(si_class_type_info.o)
                0x080170c8                vtable for __cxxabiv1::__si_class_type_info
 .rodata._ZTIN10__cxxabiv120__si_class_type_infoE
                0x080170f8        0xc c:/users/gordon/documents/university/computer_graphics_architecture/dev/devkitpro/devkitarm/bin/../lib/gcc/arm-eabi/4.6.1/../../../../arm-eabi/lib/thumb\libstdc++.a(si_class_type_info.o)
                0x080170f8                typeinfo for __cxxabiv1::__si_class_type_info
 .rodata._ZTSN10__cxxabiv120__si_class_type_infoE
                0x08017104       0x28 c:/users/gordon/documents/university/computer_graphics_architecture/dev/devkitpro/devkitarm/bin/../lib/gcc/arm-eabi/4.6.1/../../../../arm-eabi/lib/thumb\libstdc++.a(si_class_type_info.o)
                0x08017104                typeinfo name for __cxxabiv1::__si_class_type_info
 .rodata._ZTISt9type_info
                0x0801712c        0x8 c:/users/gordon/documents/university/computer_graphics_architecture/dev/devkitpro/devkitarm/bin/../lib/gcc/arm-eabi/4.6.1/../../../../arm-eabi/lib/thumb\libstdc++.a(tinfo.o)
                0x0801712c                typeinfo for std::type_info
 .rodata._ZTSSt9type_info
                0x08017134       0x10 c:/users/gordon/documents/university/computer_graphics_architecture/dev/devkitpro/devkitarm/bin/../lib/gcc/arm-eabi/4.6.1/../../../../arm-eabi/lib/thumb\libstdc++.a(tinfo.o)
                0x08017134                typeinfo name for std::type_info
 *fill*         0x08017144        0x4 ff
 .rodata._ZTVSt9type_info
                0x08017148       0x20 c:/users/gordon/documents/university/computer_graphics_architecture/dev/devkitpro/devkitarm/bin/../lib/gcc/arm-eabi/4.6.1/../../../../arm-eabi/lib/thumb\libstdc++.a(tinfo.o)
                0x08017148                vtable for std::type_info
 .rodata.str1.4
                0x08017168       0x94 c:/users/gordon/documents/university/computer_graphics_architecture/dev/devkitpro/devkitarm/bin/../lib/gcc/arm-eabi/4.6.1/../../../../arm-eabi/lib/thumb\libstdc++.a(vterminate.o)
 .rodata._ZTISt8bad_cast
                0x080171fc        0xc c:/users/gordon/documents/university/computer_graphics_architecture/dev/devkitpro/devkitarm/bin/../lib/gcc/arm-eabi/4.6.1/../../../../arm-eabi/lib/thumb\libstdc++.a(bad_cast.o)
                0x080171fc                typeinfo for std::bad_cast
 .rodata._ZTSSt8bad_cast
                0x08017208        0xc c:/users/gordon/documents/university/computer_graphics_architecture/dev/devkitpro/devkitarm/bin/../lib/gcc/arm-eabi/4.6.1/../../../../arm-eabi/lib/thumb\libstdc++.a(bad_cast.o)
                0x08017208                typeinfo name for std::bad_cast
 *fill*         0x08017214        0x4 ff
 .rodata._ZTVSt8bad_cast
                0x08017218       0x18 c:/users/gordon/documents/university/computer_graphics_architecture/dev/devkitpro/devkitarm/bin/../lib/gcc/arm-eabi/4.6.1/../../../../arm-eabi/lib/thumb\libstdc++.a(bad_cast.o)
                0x08017218                vtable for std::bad_cast
 .rodata.str1.4
                0x08017230        0xe c:/users/gordon/documents/university/computer_graphics_architecture/dev/devkitpro/devkitarm/bin/../lib/gcc/arm-eabi/4.6.1/../../../../arm-eabi/lib/thumb\libstdc++.a(bad_cast.o)
                                 0x10 (size before relaxing)
 *fill*         0x0801723e        0x2 ff
 .rodata._ZTVSt10bad_typeid
                0x08017240       0x18 c:/users/gordon/documents/university/computer_graphics_architecture/dev/devkitpro/devkitarm/bin/../lib/gcc/arm-eabi/4.6.1/../../../../arm-eabi/lib/thumb\libstdc++.a(bad_typeid.o)
                0x08017240                vtable for std::bad_typeid
 .rodata._ZTISt10bad_typeid
                0x08017258        0xc c:/users/gordon/documents/university/computer_graphics_architecture/dev/devkitpro/devkitarm/bin/../lib/gcc/arm-eabi/4.6.1/../../../../arm-eabi/lib/thumb\libstdc++.a(bad_typeid.o)
                0x08017258                typeinfo for std::bad_typeid
 .rodata.str1.4
                0x08017264       0x10 c:/users/gordon/documents/university/computer_graphics_architecture/dev/devkitpro/devkitarm/bin/../lib/gcc/arm-eabi/4.6.1/../../../../arm-eabi/lib/thumb\libstdc++.a(bad_typeid.o)
 .rodata._ZTSSt10bad_typeid
                0x08017274       0x10 c:/users/gordon/documents/university/computer_graphics_architecture/dev/devkitpro/devkitarm/bin/../lib/gcc/arm-eabi/4.6.1/../../../../arm-eabi/lib/thumb\libstdc++.a(bad_typeid.o)
                0x08017274                typeinfo name for std::bad_typeid
 *fill*         0x08017284        0x4 ff
 .rodata._ZTVN10__cxxabiv117__class_type_infoE
                0x08017288       0x30 c:/users/gordon/documents/university/computer_graphics_architecture/dev/devkitpro/devkitarm/bin/../lib/gcc/arm-eabi/4.6.1/../../../../arm-eabi/lib/thumb\libstdc++.a(class_type_info.o)
                0x08017288                vtable for __cxxabiv1::__class_type_info
 .rodata._ZTIN10__cxxabiv117__class_type_infoE
                0x080172b8        0xc c:/users/gordon/documents/university/computer_graphics_architecture/dev/devkitpro/devkitarm/bin/../lib/gcc/arm-eabi/4.6.1/../../../../arm-eabi/lib/thumb\libstdc++.a(class_type_info.o)
                0x080172b8                typeinfo for __cxxabiv1::__class_type_info
 .rodata._ZTSN10__cxxabiv117__class_type_infoE
                0x080172c4       0x24 c:/users/gordon/documents/university/computer_graphics_architecture/dev/devkitpro/devkitarm/bin/../lib/gcc/arm-eabi/4.6.1/../../../../arm-eabi/lib/thumb\libstdc++.a(class_type_info.o)
                0x080172c4                typeinfo name for __cxxabiv1::__class_type_info
 .rodata.str1.4
                0x080172e8      0x6ef c:/users/gordon/documents/university/computer_graphics_architecture/dev/devkitpro/devkitarm/bin/../lib/gcc/arm-eabi/4.6.1/../../../../arm-eabi/lib/thumb\libstdc++.a(cp-demangle.o)
                                0x724 (size before relaxing)
 *fill*         0x080179d7        0x1 ff
 .rodata._ZTIN10__cxxabiv117__pbase_type_infoE
                0x080179d8        0xc c:/users/gordon/documents/university/computer_graphics_architecture/dev/devkitpro/devkitarm/bin/../lib/gcc/arm-eabi/4.6.1/../../../../arm-eabi/lib/thumb\libstdc++.a(pbase_type_info.o)
                0x080179d8                typeinfo for __cxxabiv1::__pbase_type_info
 .rodata._ZTSN10__cxxabiv117__pbase_type_infoE
                0x080179e4       0x24 c:/users/gordon/documents/university/computer_graphics_architecture/dev/devkitpro/devkitarm/bin/../lib/gcc/arm-eabi/4.6.1/../../../../arm-eabi/lib/thumb\libstdc++.a(pbase_type_info.o)
                0x080179e4                typeinfo name for __cxxabiv1::__pbase_type_info
 .rodata._ZTVN10__cxxabiv117__pbase_type_infoE
                0x08017a08       0x28 c:/users/gordon/documents/university/computer_graphics_architecture/dev/devkitpro/devkitarm/bin/../lib/gcc/arm-eabi/4.6.1/../../../../arm-eabi/lib/thumb\libstdc++.a(pbase_type_info.o)
                0x08017a08                vtable for __cxxabiv1::__pbase_type_info
 .rodata.str1.4
                0x08017a30        0x2 c:/users/gordon/documents/university/computer_graphics_architecture/dev/devkitpro/devkitarm/bin/../lib/gcc/arm-eabi/4.6.1/../../../../arm-eabi/lib/thumb\libg.a(lib_a-impure.o)
                                  0x4 (size before relaxing)
 *fill*         0x08017a32        0x2 ff
 .rodata.str1.4
                0x08017a34       0x42 c:/users/gordon/documents/university/computer_graphics_architecture/dev/devkitpro/devkitarm/bin/../lib/gcc/arm-eabi/4.6.1/../../../../arm-eabi/lib/thumb\libg.a(lib_a-svfprintf.o)
                                 0x44 (size before relaxing)
 *fill*         0x08017a76        0x2 ff
 .rodata.str1.4
                0x08017a78       0x10 c:/users/gordon/documents/university/computer_graphics_architecture/dev/devkitpro/devkitarm/bin/../lib/gcc/arm-eabi/4.6.1/../../../../arm-eabi/lib/thumb\libg.a(lib_a-dtoa.o)
                                 0x14 (size before relaxing)
 .rodata.str1.4
                0x08017a88      0x120 c:/users/gordon/documents/university/computer_graphics_architecture/dev/devkitpro/devkitarm/bin/../lib/gcc/arm-eabi/4.6.1/../../../../arm-eabi/lib/thumb\libg.a(lib_a-locale.o)
                                0x130 (size before relaxing)
 .rodata.str1.4
                0x00000000       0x30 c:/users/gordon/documents/university/computer_graphics_architecture/dev/devkitpro/devkitarm/bin/../lib/gcc/arm-eabi/4.6.1/../../../../arm-eabi/lib/thumb\libg.a(lib_a-svfiprintf.o)
 .rodata.str1.4
                0x08017ba8        0x8 c:/users/gordon/documents/university/computer_graphics_architecture/dev/devkitpro/devkitarm/bin/../lib/gcc/arm-eabi/4.6.1/../../../../arm-eabi/lib/thumb\libsysbase.a(iosupport.o)
 *(.gnu.linkonce.r*)
                0x08017bb0                . = ALIGN (0x4)

.ARM.extab      0x08017bb0      0x168
 *(.ARM.extab* .gnu.linkonce.armextab.*)
 .ARM.extab.text._Znwj
                0x08017bb0       0x20 c:/users/gordon/documents/university/computer_graphics_architecture/dev/devkitpro/devkitarm/bin/../lib/gcc/arm-eabi/4.6.1/../../../../arm-eabi/lib/thumb\libstdc++.a(new_op.o)
 .ARM.extab.text._ZNKSt9bad_alloc4whatEv
                0x08017bd0        0x0 c:/users/gordon/documents/university/computer_graphics_architecture/dev/devkitpro/devkitarm/bin/../lib/gcc/arm-eabi/4.6.1/../../../../arm-eabi/lib/thumb\libstdc++.a(bad_alloc.o)
 .ARM.extab.text._ZNSt9bad_allocD2Ev
                0x08017bd0        0x0 c:/users/gordon/documents/university/computer_graphics_architecture/dev/devkitpro/devkitarm/bin/../lib/gcc/arm-eabi/4.6.1/../../../../arm-eabi/lib/thumb\libstdc++.a(bad_alloc.o)
 .ARM.extab.text._ZNSt9bad_allocD0Ev
                0x08017bd0        0x0 c:/users/gordon/documents/university/computer_graphics_architecture/dev/devkitpro/devkitarm/bin/../lib/gcc/arm-eabi/4.6.1/../../../../arm-eabi/lib/thumb\libstdc++.a(bad_alloc.o)
 .ARM.extab.text._ZdlPv
                0x08017bd0        0x0 c:/users/gordon/documents/university/computer_graphics_architecture/dev/devkitpro/devkitarm/bin/../lib/gcc/arm-eabi/4.6.1/../../../../arm-eabi/lib/thumb\libstdc++.a(del_op.o)
 .ARM.extab.text.__cxa_allocate_exception
                0x08017bd0        0x0 c:/users/gordon/documents/university/computer_graphics_architecture/dev/devkitpro/devkitarm/bin/../lib/gcc/arm-eabi/4.6.1/../../../../arm-eabi/lib/thumb\libstdc++.a(eh_alloc.o)
 .ARM.extab.text.__cxa_free_exception
                0x08017bd0        0x0 c:/users/gordon/documents/university/computer_graphics_architecture/dev/devkitpro/devkitarm/bin/../lib/gcc/arm-eabi/4.6.1/../../../../arm-eabi/lib/thumb\libstdc++.a(eh_alloc.o)
 .ARM.extab.text.__cxa_allocate_dependent_exception
                0x08017bd0        0x0 c:/users/gordon/documents/university/computer_graphics_architecture/dev/devkitpro/devkitarm/bin/../lib/gcc/arm-eabi/4.6.1/../../../../arm-eabi/lib/thumb\libstdc++.a(eh_alloc.o)
 .ARM.extab.text.__cxa_free_dependent_exception
                0x08017bd0        0x0 c:/users/gordon/documents/university/computer_graphics_architecture/dev/devkitpro/devkitarm/bin/../lib/gcc/arm-eabi/4.6.1/../../../../arm-eabi/lib/thumb\libstdc++.a(eh_alloc.o)
 .ARM.extab.text.__cxa_type_match
                0x08017bd0        0x0 c:/users/gordon/documents/university/computer_graphics_architecture/dev/devkitpro/devkitarm/bin/../lib/gcc/arm-eabi/4.6.1/../../../../arm-eabi/lib/thumb\libstdc++.a(eh_arm.o)
 .ARM.extab.text.__cxa_begin_cleanup
                0x08017bd0        0x0 c:/users/gordon/documents/university/computer_graphics_architecture/dev/devkitpro/devkitarm/bin/../lib/gcc/arm-eabi/4.6.1/../../../../arm-eabi/lib/thumb\libstdc++.a(eh_arm.o)
 .ARM.extab.text.__gnu_end_cleanup
                0x08017bd0        0x0 c:/users/gordon/documents/university/computer_graphics_architecture/dev/devkitpro/devkitarm/bin/../lib/gcc/arm-eabi/4.6.1/../../../../arm-eabi/lib/thumb\libstdc++.a(eh_arm.o)
 .ARM.extab.text.__cxa_bad_cast
                0x08017bd0        0xc c:/users/gordon/documents/university/computer_graphics_architecture/dev/devkitpro/devkitarm/bin/../lib/gcc/arm-eabi/4.6.1/../../../../arm-eabi/lib/thumb\libstdc++.a(eh_aux_runtime.o)
 .ARM.extab.text.__cxa_bad_typeid
                0x08017bdc        0xc c:/users/gordon/documents/university/computer_graphics_architecture/dev/devkitpro/devkitarm/bin/../lib/gcc/arm-eabi/4.6.1/../../../../arm-eabi/lib/thumb\libstdc++.a(eh_aux_runtime.o)
 .ARM.extab.text.__cxa_call_terminate
                0x08017be8        0x0 c:/users/gordon/documents/university/computer_graphics_architecture/dev/devkitpro/devkitarm/bin/../lib/gcc/arm-eabi/4.6.1/../../../../arm-eabi/lib/thumb\libstdc++.a(eh_call.o)
 .ARM.extab.text.__cxa_call_unexpected
                0x08017be8       0x34 c:/users/gordon/documents/university/computer_graphics_architecture/dev/devkitpro/devkitarm/bin/../lib/gcc/arm-eabi/4.6.1/../../../../arm-eabi/lib/thumb\libstdc++.a(eh_call.o)
 .ARM.extab.text.__cxa_get_exception_ptr
                0x08017c1c        0x0 c:/users/gordon/documents/university/computer_graphics_architecture/dev/devkitpro/devkitarm/bin/../lib/gcc/arm-eabi/4.6.1/../../../../arm-eabi/lib/thumb\libstdc++.a(eh_catch.o)
 .ARM.extab.text.__cxa_begin_catch
                0x08017c1c       0x1c c:/users/gordon/documents/university/computer_graphics_architecture/dev/devkitpro/devkitarm/bin/../lib/gcc/arm-eabi/4.6.1/../../../../arm-eabi/lib/thumb\libstdc++.a(eh_catch.o)
 .ARM.extab.text.__cxa_end_catch
                0x08017c38        0xc c:/users/gordon/documents/university/computer_graphics_architecture/dev/devkitpro/devkitarm/bin/../lib/gcc/arm-eabi/4.6.1/../../../../arm-eabi/lib/thumb\libstdc++.a(eh_catch.o)
 .ARM.extab.text._ZSt18uncaught_exceptionv
                0x08017c44        0x0 c:/users/gordon/documents/university/computer_graphics_architecture/dev/devkitpro/devkitarm/bin/../lib/gcc/arm-eabi/4.6.1/../../../../arm-eabi/lib/thumb\libstdc++.a(eh_catch.o)
 .ARM.extab.text._ZNSt9exceptionD2Ev
                0x08017c44        0x0 c:/users/gordon/documents/university/computer_graphics_architecture/dev/devkitpro/devkitarm/bin/../lib/gcc/arm-eabi/4.6.1/../../../../arm-eabi/lib/thumb\libstdc++.a(eh_exception.o)
 .ARM.extab.text._ZNSt13bad_exceptionD2Ev
                0x08017c44        0x0 c:/users/gordon/documents/university/computer_graphics_architecture/dev/devkitpro/devkitarm/bin/../lib/gcc/arm-eabi/4.6.1/../../../../arm-eabi/lib/thumb\libstdc++.a(eh_exception.o)
 .ARM.extab.text._ZN10__cxxabiv115__forced_unwindD2Ev
                0x08017c44        0x0 c:/users/gordon/documents/university/computer_graphics_architecture/dev/devkitpro/devkitarm/bin/../lib/gcc/arm-eabi/4.6.1/../../../../arm-eabi/lib/thumb\libstdc++.a(eh_exception.o)
 .ARM.extab.text._ZN10__cxxabiv119__foreign_exceptionD2Ev
                0x08017c44        0x0 c:/users/gordon/documents/university/computer_graphics_architecture/dev/devkitpro/devkitarm/bin/../lib/gcc/arm-eabi/4.6.1/../../../../arm-eabi/lib/thumb\libstdc++.a(eh_exception.o)
 .ARM.extab.text._ZNKSt9exception4whatEv
                0x08017c44        0x0 c:/users/gordon/documents/university/computer_graphics_architecture/dev/devkitpro/devkitarm/bin/../lib/gcc/arm-eabi/4.6.1/../../../../arm-eabi/lib/thumb\libstdc++.a(eh_exception.o)
 .ARM.extab.text._ZNKSt13bad_exception4whatEv
                0x08017c44        0x0 c:/users/gordon/documents/university/computer_graphics_architecture/dev/devkitpro/devkitarm/bin/../lib/gcc/arm-eabi/4.6.1/../../../../arm-eabi/lib/thumb\libstdc++.a(eh_exception.o)
 .ARM.extab.text._ZN10__cxxabiv119__foreign_exceptionD0Ev
                0x08017c44        0x0 c:/users/gordon/documents/university/computer_graphics_architecture/dev/devkitpro/devkitarm/bin/../lib/gcc/arm-eabi/4.6.1/../../../../arm-eabi/lib/thumb\libstdc++.a(eh_exception.o)
 .ARM.extab.text._ZN10__cxxabiv115__forced_unwindD0Ev
                0x08017c44        0x0 c:/users/gordon/documents/university/computer_graphics_architecture/dev/devkitpro/devkitarm/bin/../lib/gcc/arm-eabi/4.6.1/../../../../arm-eabi/lib/thumb\libstdc++.a(eh_exception.o)
 .ARM.extab.text._ZNSt13bad_exceptionD0Ev
                0x08017c44        0x0 c:/users/gordon/documents/university/computer_graphics_architecture/dev/devkitpro/devkitarm/bin/../lib/gcc/arm-eabi/4.6.1/../../../../arm-eabi/lib/thumb\libstdc++.a(eh_exception.o)
 .ARM.extab.text._ZNSt9exceptionD0Ev
                0x08017c44        0x0 c:/users/gordon/documents/university/computer_graphics_architecture/dev/devkitpro/devkitarm/bin/../lib/gcc/arm-eabi/4.6.1/../../../../arm-eabi/lib/thumb\libstdc++.a(eh_exception.o)
 .ARM.extab.text.__cxa_get_globals_fast
                0x08017c44        0x0 c:/users/gordon/documents/university/computer_graphics_architecture/dev/devkitpro/devkitarm/bin/../lib/gcc/arm-eabi/4.6.1/../../../../arm-eabi/lib/thumb\libstdc++.a(eh_globals.o)
 .ARM.extab.text.__cxa_get_globals
                0x08017c44        0x0 c:/users/gordon/documents/university/computer_graphics_architecture/dev/devkitpro/devkitarm/bin/../lib/gcc/arm-eabi/4.6.1/../../../../arm-eabi/lib/thumb\libstdc++.a(eh_globals.o)
 .ARM.extab.text._ZL12read_sleb128PKhPl
                0x08017c44        0x0 c:/users/gordon/documents/university/computer_graphics_architecture/dev/devkitpro/devkitarm/bin/../lib/gcc/arm-eabi/4.6.1/../../../../arm-eabi/lib/thumb\libstdc++.a(eh_personality.o)
 .ARM.extab.text._ZL28read_encoded_value_with_basehjPKhPj
                0x08017c44        0xc c:/users/gordon/documents/university/computer_graphics_architecture/dev/devkitpro/devkitarm/bin/../lib/gcc/arm-eabi/4.6.1/../../../../arm-eabi/lib/thumb\libstdc++.a(eh_personality.o)
 .ARM.extab.text._ZL21base_of_encoded_valuehP15_Unwind_Context
                0x08017c50        0xc c:/users/gordon/documents/university/computer_graphics_architecture/dev/devkitpro/devkitarm/bin/../lib/gcc/arm-eabi/4.6.1/../../../../arm-eabi/lib/thumb\libstdc++.a(eh_personality.o)
 .ARM.extab.text._ZL17parse_lsda_headerP15_Unwind_ContextPKhP16lsda_header_info.constprop.4
                0x08017c5c        0x0 c:/users/gordon/documents/university/computer_graphics_architecture/dev/devkitpro/devkitarm/bin/../lib/gcc/arm-eabi/4.6.1/../../../../arm-eabi/lib/thumb\libstdc++.a(eh_personality.o)
 .ARM.extab.text.__gxx_personality_v0
                0x08017c5c       0x24 c:/users/gordon/documents/university/computer_graphics_architecture/dev/devkitpro/devkitarm/bin/../lib/gcc/arm-eabi/4.6.1/../../../../arm-eabi/lib/thumb\libstdc++.a(eh_personality.o)
 .ARM.extab.text._ZN10__cxxabiv111__terminateEPFvvE
                0x08017c80       0x28 c:/users/gordon/documents/university/computer_graphics_architecture/dev/devkitpro/devkitarm/bin/../lib/gcc/arm-eabi/4.6.1/../../../../arm-eabi/lib/thumb\libstdc++.a(eh_terminate.o)
 .ARM.extab.text._ZSt9terminatev
                0x08017ca8        0x0 c:/users/gordon/documents/university/computer_graphics_architecture/dev/devkitpro/devkitarm/bin/../lib/gcc/arm-eabi/4.6.1/../../../../arm-eabi/lib/thumb\libstdc++.a(eh_terminate.o)
 .ARM.extab.text._ZN10__cxxabiv112__unexpectedEPFvvE
                0x08017ca8        0xc c:/users/gordon/documents/university/computer_graphics_architecture/dev/devkitpro/devkitarm/bin/../lib/gcc/arm-eabi/4.6.1/../../../../arm-eabi/lib/thumb\libstdc++.a(eh_terminate.o)
 .ARM.extab.text._ZSt10unexpectedv
                0x08017cb4        0xc c:/users/gordon/documents/university/computer_graphics_architecture/dev/devkitpro/devkitarm/bin/../lib/gcc/arm-eabi/4.6.1/../../../../arm-eabi/lib/thumb\libstdc++.a(eh_terminate.o)
 .ARM.extab.text._ZSt13set_terminatePFvvE
                0x08017cc0        0x0 c:/users/gordon/documents/university/computer_graphics_architecture/dev/devkitpro/devkitarm/bin/../lib/gcc/arm-eabi/4.6.1/../../../../arm-eabi/lib/thumb\libstdc++.a(eh_terminate.o)
 .ARM.extab.text._ZSt14set_unexpectedPFvvE
                0x08017cc0        0x0 c:/users/gordon/documents/university/computer_graphics_architecture/dev/devkitpro/devkitarm/bin/../lib/gcc/arm-eabi/4.6.1/../../../../arm-eabi/lib/thumb\libstdc++.a(eh_terminate.o)
 .ARM.extab.text._ZL23__gxx_exception_cleanup19_Unwind_Reason_CodeP21_Unwind_Control_Block
                0x08017cc0        0x0 c:/users/gordon/documents/university/computer_graphics_architecture/dev/devkitpro/devkitarm/bin/../lib/gcc/arm-eabi/4.6.1/../../../../arm-eabi/lib/thumb\libstdc++.a(eh_throw.o)
 .ARM.extab.text.__cxa_throw
                0x08017cc0        0x0 c:/users/gordon/documents/university/computer_graphics_architecture/dev/devkitpro/devkitarm/bin/../lib/gcc/arm-eabi/4.6.1/../../../../arm-eabi/lib/thumb\libstdc++.a(eh_throw.o)
 .ARM.extab.text.__cxa_rethrow
                0x08017cc0        0x0 c:/users/gordon/documents/university/computer_graphics_architecture/dev/devkitpro/devkitarm/bin/../lib/gcc/arm-eabi/4.6.1/../../../../arm-eabi/lib/thumb\libstdc++.a(eh_throw.o)
 .ARM.extab.text._ZN10__cxxabiv123__fundamental_type_infoD2Ev
                0x08017cc0        0x0 c:/users/gordon/documents/university/computer_graphics_architecture/dev/devkitpro/devkitarm/bin/../lib/gcc/arm-eabi/4.6.1/../../../../arm-eabi/lib/thumb\libstdc++.a(fundamental_type_info.o)
 .ARM.extab.text._ZN10__cxxabiv123__fundamental_type_infoD0Ev
                0x08017cc0        0x0 c:/users/gordon/documents/university/computer_graphics_architecture/dev/devkitpro/devkitarm/bin/../lib/gcc/arm-eabi/4.6.1/../../../../arm-eabi/lib/thumb\libstdc++.a(fundamental_type_info.o)
 .ARM.extab.text._ZSt15set_new_handlerPFvvE
                0x08017cc0        0x0 c:/users/gordon/documents/university/computer_graphics_architecture/dev/devkitpro/devkitarm/bin/../lib/gcc/arm-eabi/4.6.1/../../../../arm-eabi/lib/thumb\libstdc++.a(new_handler.o)
 .ARM.extab.text._ZNK10__cxxabiv119__pointer_type_info14__is_pointer_pEv
                0x08017cc0        0x0 c:/users/gordon/documents/university/computer_graphics_architecture/dev/devkitpro/devkitarm/bin/../lib/gcc/arm-eabi/4.6.1/../../../../arm-eabi/lib/thumb\libstdc++.a(pointer_type_info.o)
 .ARM.extab.text._ZN10__cxxabiv119__pointer_type_infoD2Ev
                0x08017cc0        0x0 c:/users/gordon/documents/university/computer_graphics_architecture/dev/devkitpro/devkitarm/bin/../lib/gcc/arm-eabi/4.6.1/../../../../arm-eabi/lib/thumb\libstdc++.a(pointer_type_info.o)
 .ARM.extab.text._ZN10__cxxabiv119__pointer_type_infoD0Ev
                0x08017cc0        0x0 c:/users/gordon/documents/university/computer_graphics_architecture/dev/devkitpro/devkitarm/bin/../lib/gcc/arm-eabi/4.6.1/../../../../arm-eabi/lib/thumb\libstdc++.a(pointer_type_info.o)
 .ARM.extab.text._ZNK10__cxxabiv119__pointer_type_info15__pointer_catchEPKNS_17__pbase_type_infoEPPvj
                0x08017cc0        0x0 c:/users/gordon/documents/university/computer_graphics_architecture/dev/devkitpro/devkitarm/bin/../lib/gcc/arm-eabi/4.6.1/../../../../arm-eabi/lib/thumb\libstdc++.a(pointer_type_info.o)
 .ARM.extab.text.__cxa_pure_virtual
                0x08017cc0        0xc c:/users/gordon/documents/university/computer_graphics_architecture/dev/devkitpro/devkitarm/bin/../lib/gcc/arm-eabi/4.6.1/../../../../arm-eabi/lib/thumb\libstdc++.a(pure.o)
 .ARM.extab.text._ZN10__cxxabiv120__si_class_type_infoD2Ev
                0x08017ccc        0x0 c:/users/gordon/documents/university/computer_graphics_architecture/dev/devkitpro/devkitarm/bin/../lib/gcc/arm-eabi/4.6.1/../../../../arm-eabi/lib/thumb\libstdc++.a(si_class_type_info.o)
 .ARM.extab.text._ZN10__cxxabiv120__si_class_type_infoD0Ev
                0x08017ccc        0x0 c:/users/gordon/documents/university/computer_graphics_architecture/dev/devkitpro/devkitarm/bin/../lib/gcc/arm-eabi/4.6.1/../../../../arm-eabi/lib/thumb\libstdc++.a(si_class_type_info.o)
 .ARM.extab.text._ZNK10__cxxabiv120__si_class_type_info11__do_upcastEPKNS_17__class_type_infoEPKvRNS1_15__upcast_resultE
                0x08017ccc        0x0 c:/users/gordon/documents/university/computer_graphics_architecture/dev/devkitpro/devkitarm/bin/../lib/gcc/arm-eabi/4.6.1/../../../../arm-eabi/lib/thumb\libstdc++.a(si_class_type_info.o)
 .ARM.extab.text._ZNK10__cxxabiv120__si_class_type_info12__do_dyncastEiNS_17__class_type_info10__sub_kindEPKS1_PKvS4_S6_RNS1_16__dyncast_resultE
                0x08017ccc        0xc c:/users/gordon/documents/university/computer_graphics_architecture/dev/devkitpro/devkitarm/bin/../lib/gcc/arm-eabi/4.6.1/../../../../arm-eabi/lib/thumb\libstdc++.a(si_class_type_info.o)
 .ARM.extab.text._ZNK10__cxxabiv120__si_class_type_info20__do_find_public_srcEiPKvPKNS_17__class_type_infoES2_
                0x08017cd8        0xc c:/users/gordon/documents/university/computer_graphics_architecture/dev/devkitpro/devkitarm/bin/../lib/gcc/arm-eabi/4.6.1/../../../../arm-eabi/lib/thumb\libstdc++.a(si_class_type_info.o)
 .ARM.extab.text._ZNSt9type_infoD2Ev
                0x08017ce4        0x0 c:/users/gordon/documents/university/computer_graphics_architecture/dev/devkitpro/devkitarm/bin/../lib/gcc/arm-eabi/4.6.1/../../../../arm-eabi/lib/thumb\libstdc++.a(tinfo.o)
 .ARM.extab.text._ZNKSt9type_info14__is_pointer_pEv
                0x08017ce4        0x0 c:/users/gordon/documents/university/computer_graphics_architecture/dev/devkitpro/devkitarm/bin/../lib/gcc/arm-eabi/4.6.1/../../../../arm-eabi/lib/thumb\libstdc++.a(tinfo.o)
 .ARM.extab.text._ZNKSt9type_info15__is_function_pEv
                0x08017ce4        0x0 c:/users/gordon/documents/university/computer_graphics_architecture/dev/devkitpro/devkitarm/bin/../lib/gcc/arm-eabi/4.6.1/../../../../arm-eabi/lib/thumb\libstdc++.a(tinfo.o)
 .ARM.extab.text._ZNKSt9type_info11__do_upcastEPKN10__cxxabiv117__class_type_infoEPPv
                0x08017ce4        0x0 c:/users/gordon/documents/university/computer_graphics_architecture/dev/devkitpro/devkitarm/bin/../lib/gcc/arm-eabi/4.6.1/../../../../arm-eabi/lib/thumb\libstdc++.a(tinfo.o)
 .ARM.extab.text._ZNSt9type_infoD0Ev
                0x08017ce4        0x0 c:/users/gordon/documents/university/computer_graphics_architecture/dev/devkitpro/devkitarm/bin/../lib/gcc/arm-eabi/4.6.1/../../../../arm-eabi/lib/thumb\libstdc++.a(tinfo.o)
 .ARM.extab.text._ZNKSt9type_infoeqERKS_
                0x08017ce4        0x0 c:/users/gordon/documents/university/computer_graphics_architecture/dev/devkitpro/devkitarm/bin/../lib/gcc/arm-eabi/4.6.1/../../../../arm-eabi/lib/thumb\libstdc++.a(tinfo.o)
 .ARM.extab.text._ZNKSt9type_info10__do_catchEPKS_PPvj
                0x08017ce4        0x0 c:/users/gordon/documents/university/computer_graphics_architecture/dev/devkitpro/devkitarm/bin/../lib/gcc/arm-eabi/4.6.1/../../../../arm-eabi/lib/thumb\libstdc++.a(tinfo.o)
 .ARM.extab.text._ZN9__gnu_cxx27__verbose_terminate_handlerEv
                0x08017ce4       0x34 c:/users/gordon/documents/university/computer_graphics_architecture/dev/devkitpro/devkitarm/bin/../lib/gcc/arm-eabi/4.6.1/../../../../arm-eabi/lib/thumb\libstdc++.a(vterminate.o)
 .ARM.extab.text._ZNKSt8bad_cast4whatEv
                0x08017d18        0x0 c:/users/gordon/documents/university/computer_graphics_architecture/dev/devkitpro/devkitarm/bin/../lib/gcc/arm-eabi/4.6.1/../../../../arm-eabi/lib/thumb\libstdc++.a(bad_cast.o)
 .ARM.extab.text._ZNSt8bad_castD2Ev
                0x08017d18        0x0 c:/users/gordon/documents/university/computer_graphics_architecture/dev/devkitpro/devkitarm/bin/../lib/gcc/arm-eabi/4.6.1/../../../../arm-eabi/lib/thumb\libstdc++.a(bad_cast.o)
 .ARM.extab.text._ZNSt8bad_castD0Ev
                0x08017d18        0x0 c:/users/gordon/documents/university/computer_graphics_architecture/dev/devkitpro/devkitarm/bin/../lib/gcc/arm-eabi/4.6.1/../../../../arm-eabi/lib/thumb\libstdc++.a(bad_cast.o)
 .ARM.extab.text._ZNKSt10bad_typeid4whatEv
                0x08017d18        0x0 c:/users/gordon/documents/university/computer_graphics_architecture/dev/devkitpro/devkitarm/bin/../lib/gcc/arm-eabi/4.6.1/../../../../arm-eabi/lib/thumb\libstdc++.a(bad_typeid.o)
 .ARM.extab.text._ZNSt10bad_typeidD2Ev
                0x08017d18        0x0 c:/users/gordon/documents/university/computer_graphics_architecture/dev/devkitpro/devkitarm/bin/../lib/gcc/arm-eabi/4.6.1/../../../../arm-eabi/lib/thumb\libstdc++.a(bad_typeid.o)
 .ARM.extab.text._ZNSt10bad_typeidD0Ev
                0x08017d18        0x0 c:/users/gordon/documents/university/computer_graphics_architecture/dev/devkitpro/devkitarm/bin/../lib/gcc/arm-eabi/4.6.1/../../../../arm-eabi/lib/thumb\libstdc++.a(bad_typeid.o)
 .ARM.extab.text._ZNK10__cxxabiv117__class_type_info11__do_upcastEPKS0_PPv
                0x08017d18        0x0 c:/users/gordon/documents/university/computer_graphics_architecture/dev/devkitpro/devkitarm/bin/../lib/gcc/arm-eabi/4.6.1/../../../../arm-eabi/lib/thumb\libstdc++.a(class_type_info.o)
 .ARM.extab.text._ZNK10__cxxabiv117__class_type_info20__do_find_public_srcEiPKvPKS0_S2_
                0x08017d18        0x0 c:/users/gordon/documents/university/computer_graphics_architecture/dev/devkitpro/devkitarm/bin/../lib/gcc/arm-eabi/4.6.1/../../../../arm-eabi/lib/thumb\libstdc++.a(class_type_info.o)
 .ARM.extab.text._ZNK10__cxxabiv117__class_type_info11__do_upcastEPKS0_PKvRNS0_15__upcast_resultE
                0x08017d18        0x0 c:/users/gordon/documents/university/computer_graphics_architecture/dev/devkitpro/devkitarm/bin/../lib/gcc/arm-eabi/4.6.1/../../../../arm-eabi/lib/thumb\libstdc++.a(class_type_info.o)
 .ARM.extab.text._ZN10__cxxabiv117__class_type_infoD2Ev
                0x08017d18        0x0 c:/users/gordon/documents/university/computer_graphics_architecture/dev/devkitpro/devkitarm/bin/../lib/gcc/arm-eabi/4.6.1/../../../../arm-eabi/lib/thumb\libstdc++.a(class_type_info.o)
 .ARM.extab.text._ZN10__cxxabiv117__class_type_infoD0Ev
                0x08017d18        0x0 c:/users/gordon/documents/university/computer_graphics_architecture/dev/devkitpro/devkitarm/bin/../lib/gcc/arm-eabi/4.6.1/../../../../arm-eabi/lib/thumb\libstdc++.a(class_type_info.o)
 .ARM.extab.text._ZNK10__cxxabiv117__class_type_info12__do_dyncastEiNS0_10__sub_kindEPKS0_PKvS3_S5_RNS0_16__dyncast_resultE
                0x08017d18        0x0 c:/users/gordon/documents/university/computer_graphics_architecture/dev/devkitpro/devkitarm/bin/../lib/gcc/arm-eabi/4.6.1/../../../../arm-eabi/lib/thumb\libstdc++.a(class_type_info.o)
 .ARM.extab.text._ZNK10__cxxabiv117__class_type_info10__do_catchEPKSt9type_infoPPvj
                0x08017d18        0x0 c:/users/gordon/documents/university/computer_graphics_architecture/dev/devkitpro/devkitarm/bin/../lib/gcc/arm-eabi/4.6.1/../../../../arm-eabi/lib/thumb\libstdc++.a(class_type_info.o)
 .ARM.extab.text.__cxa_current_exception_type
                0x08017d18        0x0 c:/users/gordon/documents/university/computer_graphics_architecture/dev/devkitpro/devkitarm/bin/../lib/gcc/arm-eabi/4.6.1/../../../../arm-eabi/lib/thumb\libstdc++.a(eh_type.o)
 .ARM.extab.text._ZNK10__cxxabiv117__pbase_type_info15__pointer_catchEPKS0_PPvj
                0x08017d18        0x0 c:/users/gordon/documents/university/computer_graphics_architecture/dev/devkitpro/devkitarm/bin/../lib/gcc/arm-eabi/4.6.1/../../../../arm-eabi/lib/thumb\libstdc++.a(pbase_type_info.o)
 .ARM.extab.text._ZN10__cxxabiv117__pbase_type_infoD2Ev
                0x08017d18        0x0 c:/users/gordon/documents/university/computer_graphics_architecture/dev/devkitpro/devkitarm/bin/../lib/gcc/arm-eabi/4.6.1/../../../../arm-eabi/lib/thumb\libstdc++.a(pbase_type_info.o)
 .ARM.extab.text._ZN10__cxxabiv117__pbase_type_infoD0Ev
                0x08017d18        0x0 c:/users/gordon/documents/university/computer_graphics_architecture/dev/devkitpro/devkitarm/bin/../lib/gcc/arm-eabi/4.6.1/../../../../arm-eabi/lib/thumb\libstdc++.a(pbase_type_info.o)
 .ARM.extab.text._ZNK10__cxxabiv117__pbase_type_info10__do_catchEPKSt9type_infoPPvj
                0x08017d18        0x0 c:/users/gordon/documents/university/computer_graphics_architecture/dev/devkitpro/devkitarm/bin/../lib/gcc/arm-eabi/4.6.1/../../../../arm-eabi/lib/thumb\libstdc++.a(pbase_type_info.o)
                0x08017d18                __exidx_start = .

.ARM.exidx      0x08017d18      0x158
 *(.ARM.exidx* .gnu.linkonce.armexidx.*)
 .ARM.exidx.text._Znwj
                0x08017d18        0x8 c:/users/gordon/documents/university/computer_graphics_architecture/dev/devkitpro/devkitarm/bin/../lib/gcc/arm-eabi/4.6.1/../../../../arm-eabi/lib/thumb\libstdc++.a(new_op.o)
 .ARM.exidx.text._ZNKSt9bad_alloc4whatEv
                0x08017d20        0x8 c:/users/gordon/documents/university/computer_graphics_architecture/dev/devkitpro/devkitarm/bin/../lib/gcc/arm-eabi/4.6.1/../../../../arm-eabi/lib/thumb\libstdc++.a(bad_alloc.o)
 .ARM.exidx.text._ZNSt9bad_allocD2Ev
                0x08017d28        0x0 c:/users/gordon/documents/university/computer_graphics_architecture/dev/devkitpro/devkitarm/bin/../lib/gcc/arm-eabi/4.6.1/../../../../arm-eabi/lib/thumb\libstdc++.a(bad_alloc.o)
                                  0x8 (size before relaxing)
 .ARM.exidx.text._ZNSt9bad_allocD0Ev
                0x08017d28        0x0 c:/users/gordon/documents/university/computer_graphics_architecture/dev/devkitpro/devkitarm/bin/../lib/gcc/arm-eabi/4.6.1/../../../../arm-eabi/lib/thumb\libstdc++.a(bad_alloc.o)
                                  0x8 (size before relaxing)
 .ARM.exidx.text._ZdlPv
                0x08017d28        0x0 c:/users/gordon/documents/university/computer_graphics_architecture/dev/devkitpro/devkitarm/bin/../lib/gcc/arm-eabi/4.6.1/../../../../arm-eabi/lib/thumb\libstdc++.a(del_op.o)
                                  0x8 (size before relaxing)
 .ARM.exidx.text.__cxa_allocate_exception
                0x08017d28        0x0 c:/users/gordon/documents/university/computer_graphics_architecture/dev/devkitpro/devkitarm/bin/../lib/gcc/arm-eabi/4.6.1/../../../../arm-eabi/lib/thumb\libstdc++.a(eh_alloc.o)
                                  0x8 (size before relaxing)
 .ARM.exidx.text.__cxa_free_exception
                0x08017d28        0x0 c:/users/gordon/documents/university/computer_graphics_architecture/dev/devkitpro/devkitarm/bin/../lib/gcc/arm-eabi/4.6.1/../../../../arm-eabi/lib/thumb\libstdc++.a(eh_alloc.o)
                                  0x8 (size before relaxing)
 .ARM.exidx.text.__cxa_allocate_dependent_exception
                0x08017d28        0x0 c:/users/gordon/documents/university/computer_graphics_architecture/dev/devkitpro/devkitarm/bin/../lib/gcc/arm-eabi/4.6.1/../../../../arm-eabi/lib/thumb\libstdc++.a(eh_alloc.o)
                                  0x8 (size before relaxing)
 .ARM.exidx.text.__cxa_free_dependent_exception
                0x08017d28        0x0 c:/users/gordon/documents/university/computer_graphics_architecture/dev/devkitpro/devkitarm/bin/../lib/gcc/arm-eabi/4.6.1/../../../../arm-eabi/lib/thumb\libstdc++.a(eh_alloc.o)
                                  0x8 (size before relaxing)
 .ARM.exidx.text.__cxa_type_match
                0x08017d28        0x8 c:/users/gordon/documents/university/computer_graphics_architecture/dev/devkitpro/devkitarm/bin/../lib/gcc/arm-eabi/4.6.1/../../../../arm-eabi/lib/thumb\libstdc++.a(eh_arm.o)
 .ARM.exidx.text.__cxa_begin_cleanup
                0x08017d30        0x8 c:/users/gordon/documents/university/computer_graphics_architecture/dev/devkitpro/devkitarm/bin/../lib/gcc/arm-eabi/4.6.1/../../../../arm-eabi/lib/thumb\libstdc++.a(eh_arm.o)
 .ARM.exidx.text.__gnu_end_cleanup
                0x08017d38        0x0 c:/users/gordon/documents/university/computer_graphics_architecture/dev/devkitpro/devkitarm/bin/../lib/gcc/arm-eabi/4.6.1/../../../../arm-eabi/lib/thumb\libstdc++.a(eh_arm.o)
                                  0x8 (size before relaxing)
 .ARM.exidx.text.__cxa_bad_cast
                0x08017d38        0x8 c:/users/gordon/documents/university/computer_graphics_architecture/dev/devkitpro/devkitarm/bin/../lib/gcc/arm-eabi/4.6.1/../../../../arm-eabi/lib/thumb\libstdc++.a(eh_aux_runtime.o)
 .ARM.exidx.text.__cxa_bad_typeid
                0x08017d40        0x8 c:/users/gordon/documents/university/computer_graphics_architecture/dev/devkitpro/devkitarm/bin/../lib/gcc/arm-eabi/4.6.1/../../../../arm-eabi/lib/thumb\libstdc++.a(eh_aux_runtime.o)
 .ARM.exidx.text.__cxa_call_terminate
                0x08017d48        0x8 c:/users/gordon/documents/university/computer_graphics_architecture/dev/devkitpro/devkitarm/bin/../lib/gcc/arm-eabi/4.6.1/../../../../arm-eabi/lib/thumb\libstdc++.a(eh_call.o)
 .ARM.exidx.text.__cxa_call_unexpected
                0x08017d50        0x8 c:/users/gordon/documents/university/computer_graphics_architecture/dev/devkitpro/devkitarm/bin/../lib/gcc/arm-eabi/4.6.1/../../../../arm-eabi/lib/thumb\libstdc++.a(eh_call.o)
 .ARM.exidx.text.__cxa_get_exception_ptr
                0x08017d58        0x8 c:/users/gordon/documents/university/computer_graphics_architecture/dev/devkitpro/devkitarm/bin/../lib/gcc/arm-eabi/4.6.1/../../../../arm-eabi/lib/thumb\libstdc++.a(eh_catch.o)
 .ARM.exidx.text.__cxa_begin_catch
                0x08017d60        0x8 c:/users/gordon/documents/university/computer_graphics_architecture/dev/devkitpro/devkitarm/bin/../lib/gcc/arm-eabi/4.6.1/../../../../arm-eabi/lib/thumb\libstdc++.a(eh_catch.o)
 .ARM.exidx.text.__cxa_end_catch
                0x08017d68        0x8 c:/users/gordon/documents/university/computer_graphics_architecture/dev/devkitpro/devkitarm/bin/../lib/gcc/arm-eabi/4.6.1/../../../../arm-eabi/lib/thumb\libstdc++.a(eh_catch.o)
 .ARM.exidx.text._ZSt18uncaught_exceptionv
                0x08017d70        0x8 c:/users/gordon/documents/university/computer_graphics_architecture/dev/devkitpro/devkitarm/bin/../lib/gcc/arm-eabi/4.6.1/../../../../arm-eabi/lib/thumb\libstdc++.a(eh_catch.o)
 .ARM.exidx.text._ZNSt9exceptionD2Ev
                0x08017d78        0x0 c:/users/gordon/documents/university/computer_graphics_architecture/dev/devkitpro/devkitarm/bin/../lib/gcc/arm-eabi/4.6.1/../../../../arm-eabi/lib/thumb\libstdc++.a(eh_exception.o)
                                  0x8 (size before relaxing)
 .ARM.exidx.text._ZNSt13bad_exceptionD2Ev
                0x08017d78        0x0 c:/users/gordon/documents/university/computer_graphics_architecture/dev/devkitpro/devkitarm/bin/../lib/gcc/arm-eabi/4.6.1/../../../../arm-eabi/lib/thumb\libstdc++.a(eh_exception.o)
                                  0x8 (size before relaxing)
 .ARM.exidx.text._ZN10__cxxabiv115__forced_unwindD2Ev
                0x08017d78        0x0 c:/users/gordon/documents/university/computer_graphics_architecture/dev/devkitpro/devkitarm/bin/../lib/gcc/arm-eabi/4.6.1/../../../../arm-eabi/lib/thumb\libstdc++.a(eh_exception.o)
                                  0x8 (size before relaxing)
 .ARM.exidx.text._ZN10__cxxabiv119__foreign_exceptionD2Ev
                0x08017d78        0x0 c:/users/gordon/documents/university/computer_graphics_architecture/dev/devkitpro/devkitarm/bin/../lib/gcc/arm-eabi/4.6.1/../../../../arm-eabi/lib/thumb\libstdc++.a(eh_exception.o)
                                  0x8 (size before relaxing)
 .ARM.exidx.text._ZNKSt9exception4whatEv
                0x08017d78        0x0 c:/users/gordon/documents/university/computer_graphics_architecture/dev/devkitpro/devkitarm/bin/../lib/gcc/arm-eabi/4.6.1/../../../../arm-eabi/lib/thumb\libstdc++.a(eh_exception.o)
                                  0x8 (size before relaxing)
 .ARM.exidx.text._ZNKSt13bad_exception4whatEv
                0x08017d78        0x0 c:/users/gordon/documents/university/computer_graphics_architecture/dev/devkitpro/devkitarm/bin/../lib/gcc/arm-eabi/4.6.1/../../../../arm-eabi/lib/thumb\libstdc++.a(eh_exception.o)
                                  0x8 (size before relaxing)
 .ARM.exidx.text._ZN10__cxxabiv119__foreign_exceptionD0Ev
                0x08017d78        0x0 c:/users/gordon/documents/university/computer_graphics_architecture/dev/devkitpro/devkitarm/bin/../lib/gcc/arm-eabi/4.6.1/../../../../arm-eabi/lib/thumb\libstdc++.a(eh_exception.o)
                                  0x8 (size before relaxing)
 .ARM.exidx.text._ZN10__cxxabiv115__forced_unwindD0Ev
                0x08017d78        0x0 c:/users/gordon/documents/university/computer_graphics_architecture/dev/devkitpro/devkitarm/bin/../lib/gcc/arm-eabi/4.6.1/../../../../arm-eabi/lib/thumb\libstdc++.a(eh_exception.o)
                                  0x8 (size before relaxing)
 .ARM.exidx.text._ZNSt13bad_exceptionD0Ev
                0x08017d78        0x0 c:/users/gordon/documents/university/computer_graphics_architecture/dev/devkitpro/devkitarm/bin/../lib/gcc/arm-eabi/4.6.1/../../../../arm-eabi/lib/thumb\libstdc++.a(eh_exception.o)
                                  0x8 (size before relaxing)
 .ARM.exidx.text._ZNSt9exceptionD0Ev
                0x08017d78        0x0 c:/users/gordon/documents/university/computer_graphics_architecture/dev/devkitpro/devkitarm/bin/../lib/gcc/arm-eabi/4.6.1/../../../../arm-eabi/lib/thumb\libstdc++.a(eh_exception.o)
                                  0x8 (size before relaxing)
 .ARM.exidx.text.__cxa_get_globals_fast
                0x08017d78        0x0 c:/users/gordon/documents/university/computer_graphics_architecture/dev/devkitpro/devkitarm/bin/../lib/gcc/arm-eabi/4.6.1/../../../../arm-eabi/lib/thumb\libstdc++.a(eh_globals.o)
                                  0x8 (size before relaxing)
 .ARM.exidx.text.__cxa_get_globals
                0x08017d78        0x0 c:/users/gordon/documents/university/computer_graphics_architecture/dev/devkitpro/devkitarm/bin/../lib/gcc/arm-eabi/4.6.1/../../../../arm-eabi/lib/thumb\libstdc++.a(eh_globals.o)
                                  0x8 (size before relaxing)
 .ARM.exidx.text._ZL12read_sleb128PKhPl
                0x08017d78        0x0 c:/users/gordon/documents/university/computer_graphics_architecture/dev/devkitpro/devkitarm/bin/../lib/gcc/arm-eabi/4.6.1/../../../../arm-eabi/lib/thumb\libstdc++.a(eh_personality.o)
                                  0x8 (size before relaxing)
 .ARM.exidx.text._ZL28read_encoded_value_with_basehjPKhPj
                0x08017d78        0x8 c:/users/gordon/documents/university/computer_graphics_architecture/dev/devkitpro/devkitarm/bin/../lib/gcc/arm-eabi/4.6.1/../../../../arm-eabi/lib/thumb\libstdc++.a(eh_personality.o)
 .ARM.exidx.text._ZL21base_of_encoded_valuehP15_Unwind_Context
                0x08017d80        0x8 c:/users/gordon/documents/university/computer_graphics_architecture/dev/devkitpro/devkitarm/bin/../lib/gcc/arm-eabi/4.6.1/../../../../arm-eabi/lib/thumb\libstdc++.a(eh_personality.o)
 .ARM.exidx.text._ZL17parse_lsda_headerP15_Unwind_ContextPKhP16lsda_header_info.constprop.4
                0x08017d88        0x8 c:/users/gordon/documents/university/computer_graphics_architecture/dev/devkitpro/devkitarm/bin/../lib/gcc/arm-eabi/4.6.1/../../../../arm-eabi/lib/thumb\libstdc++.a(eh_personality.o)
 .ARM.exidx.text.__gxx_personality_v0
                0x08017d90        0x8 c:/users/gordon/documents/university/computer_graphics_architecture/dev/devkitpro/devkitarm/bin/../lib/gcc/arm-eabi/4.6.1/../../../../arm-eabi/lib/thumb\libstdc++.a(eh_personality.o)
 .ARM.exidx.text._ZN10__cxxabiv111__terminateEPFvvE
                0x08017d98        0x8 c:/users/gordon/documents/university/computer_graphics_architecture/dev/devkitpro/devkitarm/bin/../lib/gcc/arm-eabi/4.6.1/../../../../arm-eabi/lib/thumb\libstdc++.a(eh_terminate.o)
 .ARM.exidx.text._ZSt9terminatev
                0x08017da0        0x8 c:/users/gordon/documents/university/computer_graphics_architecture/dev/devkitpro/devkitarm/bin/../lib/gcc/arm-eabi/4.6.1/../../../../arm-eabi/lib/thumb\libstdc++.a(eh_terminate.o)
 .ARM.exidx.text._ZN10__cxxabiv112__unexpectedEPFvvE
                0x08017da8        0x8 c:/users/gordon/documents/university/computer_graphics_architecture/dev/devkitpro/devkitarm/bin/../lib/gcc/arm-eabi/4.6.1/../../../../arm-eabi/lib/thumb\libstdc++.a(eh_terminate.o)
 .ARM.exidx.text._ZSt10unexpectedv
                0x08017db0        0x8 c:/users/gordon/documents/university/computer_graphics_architecture/dev/devkitpro/devkitarm/bin/../lib/gcc/arm-eabi/4.6.1/../../../../arm-eabi/lib/thumb\libstdc++.a(eh_terminate.o)
 .ARM.exidx.text._ZSt13set_terminatePFvvE
                0x08017db8        0x8 c:/users/gordon/documents/university/computer_graphics_architecture/dev/devkitpro/devkitarm/bin/../lib/gcc/arm-eabi/4.6.1/../../../../arm-eabi/lib/thumb\libstdc++.a(eh_terminate.o)
 .ARM.exidx.text._ZSt14set_unexpectedPFvvE
                0x08017dc0        0x0 c:/users/gordon/documents/university/computer_graphics_architecture/dev/devkitpro/devkitarm/bin/../lib/gcc/arm-eabi/4.6.1/../../../../arm-eabi/lib/thumb\libstdc++.a(eh_terminate.o)
                                  0x8 (size before relaxing)
 .ARM.exidx.text._ZL23__gxx_exception_cleanup19_Unwind_Reason_CodeP21_Unwind_Control_Block
                0x08017dc0        0x8 c:/users/gordon/documents/university/computer_graphics_architecture/dev/devkitpro/devkitarm/bin/../lib/gcc/arm-eabi/4.6.1/../../../../arm-eabi/lib/thumb\libstdc++.a(eh_throw.o)
 .ARM.exidx.text.__cxa_throw
                0x08017dc8        0x0 c:/users/gordon/documents/university/computer_graphics_architecture/dev/devkitpro/devkitarm/bin/../lib/gcc/arm-eabi/4.6.1/../../../../arm-eabi/lib/thumb\libstdc++.a(eh_throw.o)
                                  0x8 (size before relaxing)
 .ARM.exidx.text.__cxa_rethrow
                0x08017dc8        0x0 c:/users/gordon/documents/university/computer_graphics_architecture/dev/devkitpro/devkitarm/bin/../lib/gcc/arm-eabi/4.6.1/../../../../arm-eabi/lib/thumb\libstdc++.a(eh_throw.o)
                                  0x8 (size before relaxing)
 .ARM.exidx.text._ZN10__cxxabiv123__fundamental_type_infoD2Ev
                0x08017dc8        0x0 c:/users/gordon/documents/university/computer_graphics_architecture/dev/devkitpro/devkitarm/bin/../lib/gcc/arm-eabi/4.6.1/../../../../arm-eabi/lib/thumb\libstdc++.a(fundamental_type_info.o)
                                  0x8 (size before relaxing)
 .ARM.exidx.text._ZN10__cxxabiv123__fundamental_type_infoD0Ev
                0x08017dc8        0x0 c:/users/gordon/documents/university/computer_graphics_architecture/dev/devkitpro/devkitarm/bin/../lib/gcc/arm-eabi/4.6.1/../../../../arm-eabi/lib/thumb\libstdc++.a(fundamental_type_info.o)
                                  0x8 (size before relaxing)
 .ARM.exidx.text._ZSt15set_new_handlerPFvvE
                0x08017dc8        0x8 c:/users/gordon/documents/university/computer_graphics_architecture/dev/devkitpro/devkitarm/bin/../lib/gcc/arm-eabi/4.6.1/../../../../arm-eabi/lib/thumb\libstdc++.a(new_handler.o)
 .ARM.exidx.text._ZNK10__cxxabiv119__pointer_type_info14__is_pointer_pEv
                0x08017dd0        0x0 c:/users/gordon/documents/university/computer_graphics_architecture/dev/devkitpro/devkitarm/bin/../lib/gcc/arm-eabi/4.6.1/../../../../arm-eabi/lib/thumb\libstdc++.a(pointer_type_info.o)
                                  0x8 (size before relaxing)
 .ARM.exidx.text._ZN10__cxxabiv119__pointer_type_infoD2Ev
                0x08017dd0        0x8 c:/users/gordon/documents/university/computer_graphics_architecture/dev/devkitpro/devkitarm/bin/../lib/gcc/arm-eabi/4.6.1/../../../../arm-eabi/lib/thumb\libstdc++.a(pointer_type_info.o)
 .ARM.exidx.text._ZN10__cxxabiv119__pointer_type_infoD0Ev
                0x08017dd8        0x0 c:/users/gordon/documents/university/computer_graphics_architecture/dev/devkitpro/devkitarm/bin/../lib/gcc/arm-eabi/4.6.1/../../../../arm-eabi/lib/thumb\libstdc++.a(pointer_type_info.o)
                                  0x8 (size before relaxing)
 .ARM.exidx.text._ZNK10__cxxabiv119__pointer_type_info15__pointer_catchEPKNS_17__pbase_type_infoEPPvj
                0x08017dd8        0x8 c:/users/gordon/documents/university/computer_graphics_architecture/dev/devkitpro/devkitarm/bin/../lib/gcc/arm-eabi/4.6.1/../../../../arm-eabi/lib/thumb\libstdc++.a(pointer_type_info.o)
 .ARM.exidx.text.__cxa_pure_virtual
                0x08017de0        0x8 c:/users/gordon/documents/university/computer_graphics_architecture/dev/devkitpro/devkitarm/bin/../lib/gcc/arm-eabi/4.6.1/../../../../arm-eabi/lib/thumb\libstdc++.a(pure.o)
 .ARM.exidx.text._ZN10__cxxabiv120__si_class_type_infoD2Ev
                0x08017de8        0x8 c:/users/gordon/documents/university/computer_graphics_architecture/dev/devkitpro/devkitarm/bin/../lib/gcc/arm-eabi/4.6.1/../../../../arm-eabi/lib/thumb\libstdc++.a(si_class_type_info.o)
 .ARM.exidx.text._ZN10__cxxabiv120__si_class_type_infoD0Ev
                0x08017df0        0x0 c:/users/gordon/documents/university/computer_graphics_architecture/dev/devkitpro/devkitarm/bin/../lib/gcc/arm-eabi/4.6.1/../../../../arm-eabi/lib/thumb\libstdc++.a(si_class_type_info.o)
                                  0x8 (size before relaxing)
 .ARM.exidx.text._ZNK10__cxxabiv120__si_class_type_info11__do_upcastEPKNS_17__class_type_infoEPKvRNS1_15__upcast_resultE
                0x08017df0        0x8 c:/users/gordon/documents/university/computer_graphics_architecture/dev/devkitpro/devkitarm/bin/../lib/gcc/arm-eabi/4.6.1/../../../../arm-eabi/lib/thumb\libstdc++.a(si_class_type_info.o)
 .ARM.exidx.text._ZNK10__cxxabiv120__si_class_type_info12__do_dyncastEiNS_17__class_type_info10__sub_kindEPKS1_PKvS4_S6_RNS1_16__dyncast_resultE
                0x08017df8        0x8 c:/users/gordon/documents/university/computer_graphics_architecture/dev/devkitpro/devkitarm/bin/../lib/gcc/arm-eabi/4.6.1/../../../../arm-eabi/lib/thumb\libstdc++.a(si_class_type_info.o)
 .ARM.exidx.text._ZNK10__cxxabiv120__si_class_type_info20__do_find_public_srcEiPKvPKNS_17__class_type_infoES2_
                0x08017e00        0x8 c:/users/gordon/documents/university/computer_graphics_architecture/dev/devkitpro/devkitarm/bin/../lib/gcc/arm-eabi/4.6.1/../../../../arm-eabi/lib/thumb\libstdc++.a(si_class_type_info.o)
 .ARM.exidx.text._ZNSt9type_infoD2Ev
                0x08017e08        0x8 c:/users/gordon/documents/university/computer_graphics_architecture/dev/devkitpro/devkitarm/bin/../lib/gcc/arm-eabi/4.6.1/../../../../arm-eabi/lib/thumb\libstdc++.a(tinfo.o)
 .ARM.exidx.text._ZNKSt9type_info14__is_pointer_pEv
                0x08017e10        0x0 c:/users/gordon/documents/university/computer_graphics_architecture/dev/devkitpro/devkitarm/bin/../lib/gcc/arm-eabi/4.6.1/../../../../arm-eabi/lib/thumb\libstdc++.a(tinfo.o)
                                  0x8 (size before relaxing)
 .ARM.exidx.text._ZNKSt9type_info15__is_function_pEv
                0x08017e10        0x0 c:/users/gordon/documents/university/computer_graphics_architecture/dev/devkitpro/devkitarm/bin/../lib/gcc/arm-eabi/4.6.1/../../../../arm-eabi/lib/thumb\libstdc++.a(tinfo.o)
                                  0x8 (size before relaxing)
 .ARM.exidx.text._ZNKSt9type_info11__do_upcastEPKN10__cxxabiv117__class_type_infoEPPv
                0x08017e10        0x0 c:/users/gordon/documents/university/computer_graphics_architecture/dev/devkitpro/devkitarm/bin/../lib/gcc/arm-eabi/4.6.1/../../../../arm-eabi/lib/thumb\libstdc++.a(tinfo.o)
                                  0x8 (size before relaxing)
 .ARM.exidx.text._ZNSt9type_infoD0Ev
                0x08017e10        0x0 c:/users/gordon/documents/university/computer_graphics_architecture/dev/devkitpro/devkitarm/bin/../lib/gcc/arm-eabi/4.6.1/../../../../arm-eabi/lib/thumb\libstdc++.a(tinfo.o)
                                  0x8 (size before relaxing)
 .ARM.exidx.text._ZNKSt9type_infoeqERKS_
                0x08017e10        0x0 c:/users/gordon/documents/university/computer_graphics_architecture/dev/devkitpro/devkitarm/bin/../lib/gcc/arm-eabi/4.6.1/../../../../arm-eabi/lib/thumb\libstdc++.a(tinfo.o)
                                  0x8 (size before relaxing)
 .ARM.exidx.text._ZNKSt9type_info10__do_catchEPKS_PPvj
                0x08017e10        0x0 c:/users/gordon/documents/university/computer_graphics_architecture/dev/devkitpro/devkitarm/bin/../lib/gcc/arm-eabi/4.6.1/../../../../arm-eabi/lib/thumb\libstdc++.a(tinfo.o)
                                  0x8 (size before relaxing)
 .ARM.exidx.text._ZN9__gnu_cxx27__verbose_terminate_handlerEv
                0x08017e10        0x8 c:/users/gordon/documents/university/computer_graphics_architecture/dev/devkitpro/devkitarm/bin/../lib/gcc/arm-eabi/4.6.1/../../../../arm-eabi/lib/thumb\libstdc++.a(vterminate.o)
 .ARM.exidx.text._ZNKSt8bad_cast4whatEv
                0x08017e18        0x8 c:/users/gordon/documents/university/computer_graphics_architecture/dev/devkitpro/devkitarm/bin/../lib/gcc/arm-eabi/4.6.1/../../../../arm-eabi/lib/thumb\libstdc++.a(bad_cast.o)
 .ARM.exidx.text._ZNSt8bad_castD2Ev
                0x08017e20        0x0 c:/users/gordon/documents/university/computer_graphics_architecture/dev/devkitpro/devkitarm/bin/../lib/gcc/arm-eabi/4.6.1/../../../../arm-eabi/lib/thumb\libstdc++.a(bad_cast.o)
                                  0x8 (size before relaxing)
 .ARM.exidx.text._ZNSt8bad_castD0Ev
                0x08017e20        0x0 c:/users/gordon/documents/university/computer_graphics_architecture/dev/devkitpro/devkitarm/bin/../lib/gcc/arm-eabi/4.6.1/../../../../arm-eabi/lib/thumb\libstdc++.a(bad_cast.o)
                                  0x8 (size before relaxing)
 .ARM.exidx.text._ZNKSt10bad_typeid4whatEv
                0x08017e20        0x0 c:/users/gordon/documents/university/computer_graphics_architecture/dev/devkitpro/devkitarm/bin/../lib/gcc/arm-eabi/4.6.1/../../../../arm-eabi/lib/thumb\libstdc++.a(bad_typeid.o)
                                  0x8 (size before relaxing)
 .ARM.exidx.text._ZNSt10bad_typeidD2Ev
                0x08017e20        0x0 c:/users/gordon/documents/university/computer_graphics_architecture/dev/devkitpro/devkitarm/bin/../lib/gcc/arm-eabi/4.6.1/../../../../arm-eabi/lib/thumb\libstdc++.a(bad_typeid.o)
                                  0x8 (size before relaxing)
 .ARM.exidx.text._ZNSt10bad_typeidD0Ev
                0x08017e20        0x0 c:/users/gordon/documents/university/computer_graphics_architecture/dev/devkitpro/devkitarm/bin/../lib/gcc/arm-eabi/4.6.1/../../../../arm-eabi/lib/thumb\libstdc++.a(bad_typeid.o)
                                  0x8 (size before relaxing)
 .ARM.exidx.text._ZNK10__cxxabiv117__class_type_info11__do_upcastEPKS0_PPv
                0x08017e20        0x8 c:/users/gordon/documents/university/computer_graphics_architecture/dev/devkitpro/devkitarm/bin/../lib/gcc/arm-eabi/4.6.1/../../../../arm-eabi/lib/thumb\libstdc++.a(class_type_info.o)
 .ARM.exidx.text._ZNK10__cxxabiv117__class_type_info20__do_find_public_srcEiPKvPKS0_S2_
                0x08017e28        0x8 c:/users/gordon/documents/university/computer_graphics_architecture/dev/devkitpro/devkitarm/bin/../lib/gcc/arm-eabi/4.6.1/../../../../arm-eabi/lib/thumb\libstdc++.a(class_type_info.o)
 .ARM.exidx.text._ZNK10__cxxabiv117__class_type_info11__do_upcastEPKS0_PKvRNS0_15__upcast_resultE
                0x08017e30        0x8 c:/users/gordon/documents/university/computer_graphics_architecture/dev/devkitpro/devkitarm/bin/../lib/gcc/arm-eabi/4.6.1/../../../../arm-eabi/lib/thumb\libstdc++.a(class_type_info.o)
 .ARM.exidx.text._ZN10__cxxabiv117__class_type_infoD2Ev
                0x08017e38        0x8 c:/users/gordon/documents/university/computer_graphics_architecture/dev/devkitpro/devkitarm/bin/../lib/gcc/arm-eabi/4.6.1/../../../../arm-eabi/lib/thumb\libstdc++.a(class_type_info.o)
 .ARM.exidx.text._ZN10__cxxabiv117__class_type_infoD0Ev
                0x08017e40        0x0 c:/users/gordon/documents/university/computer_graphics_architecture/dev/devkitpro/devkitarm/bin/../lib/gcc/arm-eabi/4.6.1/../../../../arm-eabi/lib/thumb\libstdc++.a(class_type_info.o)
                                  0x8 (size before relaxing)
 .ARM.exidx.text._ZNK10__cxxabiv117__class_type_info12__do_dyncastEiNS0_10__sub_kindEPKS0_PKvS3_S5_RNS0_16__dyncast_resultE
                0x08017e40        0x8 c:/users/gordon/documents/university/computer_graphics_architecture/dev/devkitpro/devkitarm/bin/../lib/gcc/arm-eabi/4.6.1/../../../../arm-eabi/lib/thumb\libstdc++.a(class_type_info.o)
 .ARM.exidx.text._ZNK10__cxxabiv117__class_type_info10__do_catchEPKSt9type_infoPPvj
                0x08017e48        0x8 c:/users/gordon/documents/university/computer_graphics_architecture/dev/devkitpro/devkitarm/bin/../lib/gcc/arm-eabi/4.6.1/../../../../arm-eabi/lib/thumb\libstdc++.a(class_type_info.o)
 .ARM.exidx.text.__cxa_current_exception_type
                0x08017e50        0x8 c:/users/gordon/documents/university/computer_graphics_architecture/dev/devkitpro/devkitarm/bin/../lib/gcc/arm-eabi/4.6.1/../../../../arm-eabi/lib/thumb\libstdc++.a(eh_type.o)
 .ARM.exidx.text._ZNK10__cxxabiv117__pbase_type_info15__pointer_catchEPKS0_PPvj
                0x08017e58        0x8 c:/users/gordon/documents/university/computer_graphics_architecture/dev/devkitpro/devkitarm/bin/../lib/gcc/arm-eabi/4.6.1/../../../../arm-eabi/lib/thumb\libstdc++.a(pbase_type_info.o)
 .ARM.exidx.text._ZN10__cxxabiv117__pbase_type_infoD2Ev
                0x08017e60        0x0 c:/users/gordon/documents/university/computer_graphics_architecture/dev/devkitpro/devkitarm/bin/../lib/gcc/arm-eabi/4.6.1/../../../../arm-eabi/lib/thumb\libstdc++.a(pbase_type_info.o)
                                  0x8 (size before relaxing)
 .ARM.exidx.text._ZN10__cxxabiv117__pbase_type_infoD0Ev
                0x08017e60        0x0 c:/users/gordon/documents/university/computer_graphics_architecture/dev/devkitpro/devkitarm/bin/../lib/gcc/arm-eabi/4.6.1/../../../../arm-eabi/lib/thumb\libstdc++.a(pbase_type_info.o)
                                  0x8 (size before relaxing)
 .ARM.exidx.text._ZNK10__cxxabiv117__pbase_type_info10__do_catchEPKSt9type_infoPPvj
                0x08017e60       0x10 c:/users/gordon/documents/university/computer_graphics_architecture/dev/devkitpro/devkitarm/bin/../lib/gcc/arm-eabi/4.6.1/../../../../arm-eabi/lib/thumb\libstdc++.a(pbase_type_info.o)
                                  0x8 (size before relaxing)
                0x08017e70                __exidx_end = .

.ctors          0x08017e70        0x0
 *crtbegin.o(.ctors)
 *(EXCLUDE_FILE(*crtend.o) .ctors)
 *(SORT(.ctors.*))
 *(.ctors)
                0x08017e70                . = ALIGN (0x4)

.dtors          0x08017e70        0x0
 *crtbegin.o(.dtors)
 *(EXCLUDE_FILE(*crtend.o) .dtors)
 *(SORT(.dtors.*))
 *(.dtors)
                0x08017e70                . = ALIGN (0x4)

.eh_frame       0x08017e70        0x4
 *(.eh_frame)
 .eh_frame      0x08017e70        0x0 c:/users/gordon/documents/university/computer_graphics_architecture/dev/devkitpro/devkitarm/bin/../lib/gcc/arm-eabi/4.6.1/thumb/crtbegin.o
 .eh_frame      0x08017e70        0x4 c:/users/gordon/documents/university/computer_graphics_architecture/dev/devkitpro/devkitarm/bin/../lib/gcc/arm-eabi/4.6.1/thumb/crtend.o
                0x08017e74                . = ALIGN (0x4)

.gcc_except_table
                0x08017e74        0x0
 *(.gcc_except_table)
                0x08017e74                . = ALIGN (0x4)
                0x08017e74                __iwram_lma = .

.iwram          0x03000000        0x0 load address 0x08017e74
                0x03000000                __iwram_start__ = ABSOLUTE (.)
 *(.iwram)
 *iwram.*(.text)
                0x03000000                . = ALIGN (0x4)
                0x03000000                __iwram_end__ = ABSOLUTE (.)
                0x08017e74                __data_lma = (__iwram_lma + SIZEOF (.iwram))

.bss            0x03000000     0x33e0
                0x03000000                __bss_start = ABSOLUTE (.)
                0x03000000                __bss_start__ = ABSOLUTE (.)
 *(.dynbss)
 *(.gnu.linkonce.b*)
 *(.bss*)
 .bss           0x03000000        0x0 c:/users/gordon/documents/university/computer_graphics_architecture/dev/devkitpro/devkitarm/bin/../lib/gcc/arm-eabi/4.6.1/../../../../arm-eabi/lib/thumb/gba_crt0.o
 .bss           0x03000000        0x0 c:/users/gordon/documents/university/computer_graphics_architecture/dev/devkitpro/devkitarm/bin/../lib/gcc/arm-eabi/4.6.1/thumb/crti.o
 .bss           0x03000000       0x1c c:/users/gordon/documents/university/computer_graphics_architecture/dev/devkitpro/devkitarm/bin/../lib/gcc/arm-eabi/4.6.1/thumb/crtbegin.o
 .bss           0x0300001c        0x0 tiles.o
 .bss           0x0300001c        0x0 font.o
 .bss           0x0300001c      0x400 gba.o
                0x0300001c                ObjBuffer
 .bss           0x0300041c        0x0 main.o
 .bss           0x0300041c        0x0 player.o
 .bss           0x0300041c        0x0 util.o
 .bss           0x0300041c     0x12c0 world.o
                0x0300041c                map
 .bss           0x030016dc        0x0 c:/users/gordon/documents/university/computer_graphics_architecture/dev/devkitpro/devkitarm/bin/../lib/gcc/arm-eabi/4.6.1/../../../../arm-eabi/lib/thumb\libstdc++.a(new_op.o)
 .bss           0x030016dc        0x0 c:/users/gordon/documents/university/computer_graphics_architecture/dev/devkitpro/devkitarm/bin/../lib/gcc/arm-eabi/4.6.1/../../../../arm-eabi/lib/thumb\libstdc++.a(bad_alloc.o)
 .bss           0x030016dc        0x0 c:/users/gordon/documents/university/computer_graphics_architecture/dev/devkitpro/devkitarm/bin/../lib/gcc/arm-eabi/4.6.1/../../../../arm-eabi/lib/thumb\libstdc++.a(del_op.o)
 .bss           0x030016dc        0x0 c:/users/gordon/documents/university/computer_graphics_architecture/dev/devkitpro/devkitarm/bin/../lib/gcc/arm-eabi/4.6.1/../../../../arm-eabi/lib/thumb\libstdc++.a(eh_alloc.o)
 .bss._ZL15dependents_used
                0x030016dc        0x4 c:/users/gordon/documents/university/computer_graphics_architecture/dev/devkitpro/devkitarm/bin/../lib/gcc/arm-eabi/4.6.1/../../../../arm-eabi/lib/thumb\libstdc++.a(eh_alloc.o)
 .bss._ZL17dependents_buffer
                0x030016e0      0x1e0 c:/users/gordon/documents/university/computer_graphics_architecture/dev/devkitpro/devkitarm/bin/../lib/gcc/arm-eabi/4.6.1/../../../../arm-eabi/lib/thumb\libstdc++.a(eh_alloc.o)
 .bss._ZL14emergency_used
                0x030018c0        0x4 c:/users/gordon/documents/university/computer_graphics_architecture/dev/devkitpro/devkitarm/bin/../lib/gcc/arm-eabi/4.6.1/../../../../arm-eabi/lib/thumb\libstdc++.a(eh_alloc.o)
 *fill*         0x030018c4        0x4 00
 .bss._ZL16emergency_buffer
                0x030018c8      0x800 c:/users/gordon/documents/university/computer_graphics_architecture/dev/devkitpro/devkitarm/bin/../lib/gcc/arm-eabi/4.6.1/../../../../arm-eabi/lib/thumb\libstdc++.a(eh_alloc.o)
 .bss           0x030020c8        0x0 c:/users/gordon/documents/university/computer_graphics_architecture/dev/devkitpro/devkitarm/bin/../lib/gcc/arm-eabi/4.6.1/../../../../arm-eabi/lib/thumb\libstdc++.a(eh_arm.o)
 .bss           0x030020c8        0x0 c:/users/gordon/documents/university/computer_graphics_architecture/dev/devkitpro/devkitarm/bin/../lib/gcc/arm-eabi/4.6.1/../../../../arm-eabi/lib/thumb\libstdc++.a(eh_aux_runtime.o)
 .bss           0x030020c8        0x0 c:/users/gordon/documents/university/computer_graphics_architecture/dev/devkitpro/devkitarm/bin/../lib/gcc/arm-eabi/4.6.1/../../../../arm-eabi/lib/thumb\libstdc++.a(eh_call.o)
 .bss           0x030020c8        0x0 c:/users/gordon/documents/university/computer_graphics_architecture/dev/devkitpro/devkitarm/bin/../lib/gcc/arm-eabi/4.6.1/../../../../arm-eabi/lib/thumb\libstdc++.a(eh_catch.o)
 .bss           0x030020c8        0x0 c:/users/gordon/documents/university/computer_graphics_architecture/dev/devkitpro/devkitarm/bin/../lib/gcc/arm-eabi/4.6.1/../../../../arm-eabi/lib/thumb\libstdc++.a(eh_exception.o)
 .bss           0x030020c8        0x0 c:/users/gordon/documents/university/computer_graphics_architecture/dev/devkitpro/devkitarm/bin/../lib/gcc/arm-eabi/4.6.1/../../../../arm-eabi/lib/thumb\libstdc++.a(eh_globals.o)
 .bss._ZL10eh_globals
                0x030020c8        0xc c:/users/gordon/documents/university/computer_graphics_architecture/dev/devkitpro/devkitarm/bin/../lib/gcc/arm-eabi/4.6.1/../../../../arm-eabi/lib/thumb\libstdc++.a(eh_globals.o)
 .bss           0x030020d4        0x0 c:/users/gordon/documents/university/computer_graphics_architecture/dev/devkitpro/devkitarm/bin/../lib/gcc/arm-eabi/4.6.1/../../../../arm-eabi/lib/thumb\libstdc++.a(eh_personality.o)
 .bss           0x030020d4        0x0 c:/users/gordon/documents/university/computer_graphics_architecture/dev/devkitpro/devkitarm/bin/../lib/gcc/arm-eabi/4.6.1/../../../../arm-eabi/lib/thumb\libstdc++.a(eh_terminate.o)
 .bss           0x030020d4        0x0 c:/users/gordon/documents/university/computer_graphics_architecture/dev/devkitpro/devkitarm/bin/../lib/gcc/arm-eabi/4.6.1/../../../../arm-eabi/lib/thumb\libstdc++.a(eh_term_handler.o)
 .bss           0x030020d4        0x0 c:/users/gordon/documents/university/computer_graphics_architecture/dev/devkitpro/devkitarm/bin/../lib/gcc/arm-eabi/4.6.1/../../../../arm-eabi/lib/thumb\libstdc++.a(eh_throw.o)
 .bss           0x030020d4        0x0 c:/users/gordon/documents/university/computer_graphics_architecture/dev/devkitpro/devkitarm/bin/../lib/gcc/arm-eabi/4.6.1/../../../../arm-eabi/lib/thumb\libstdc++.a(eh_unex_handler.o)
 .bss           0x030020d4        0x0 c:/users/gordon/documents/university/computer_graphics_architecture/dev/devkitpro/devkitarm/bin/../lib/gcc/arm-eabi/4.6.1/../../../../arm-eabi/lib/thumb\libstdc++.a(fundamental_type_info.o)
 .bss           0x030020d4        0x0 c:/users/gordon/documents/university/computer_graphics_architecture/dev/devkitpro/devkitarm/bin/../lib/gcc/arm-eabi/4.6.1/../../../../arm-eabi/lib/thumb\libstdc++.a(new_handler.o)
 .bss.__new_handler
                0x030020d4        0x4 c:/users/gordon/documents/university/computer_graphics_architecture/dev/devkitpro/devkitarm/bin/../lib/gcc/arm-eabi/4.6.1/../../../../arm-eabi/lib/thumb\libstdc++.a(new_handler.o)
                0x030020d4                __new_handler
 .bss           0x030020d8        0x0 c:/users/gordon/documents/university/computer_graphics_architecture/dev/devkitpro/devkitarm/bin/../lib/gcc/arm-eabi/4.6.1/../../../../arm-eabi/lib/thumb\libstdc++.a(pointer_type_info.o)
 .bss           0x030020d8        0x0 c:/users/gordon/documents/university/computer_graphics_architecture/dev/devkitpro/devkitarm/bin/../lib/gcc/arm-eabi/4.6.1/../../../../arm-eabi/lib/thumb\libstdc++.a(pure.o)
 .bss           0x030020d8        0x0 c:/users/gordon/documents/university/computer_graphics_architecture/dev/devkitpro/devkitarm/bin/../lib/gcc/arm-eabi/4.6.1/../../../../arm-eabi/lib/thumb\libstdc++.a(si_class_type_info.o)
 .bss           0x030020d8        0x0 c:/users/gordon/documents/university/computer_graphics_architecture/dev/devkitpro/devkitarm/bin/../lib/gcc/arm-eabi/4.6.1/../../../../arm-eabi/lib/thumb\libstdc++.a(tinfo.o)
 .bss           0x030020d8        0x0 c:/users/gordon/documents/university/computer_graphics_architecture/dev/devkitpro/devkitarm/bin/../lib/gcc/arm-eabi/4.6.1/../../../../arm-eabi/lib/thumb\libstdc++.a(vterminate.o)
 .bss._ZZN9__gnu_cxx27__verbose_terminate_handlerEvE11terminating
                0x030020d8        0x1 c:/users/gordon/documents/university/computer_graphics_architecture/dev/devkitpro/devkitarm/bin/../lib/gcc/arm-eabi/4.6.1/../../../../arm-eabi/lib/thumb\libstdc++.a(vterminate.o)
 .bss           0x030020d9        0x0 c:/users/gordon/documents/university/computer_graphics_architecture/dev/devkitpro/devkitarm/bin/../lib/gcc/arm-eabi/4.6.1/../../../../arm-eabi/lib/thumb\libstdc++.a(bad_cast.o)
 .bss           0x030020d9        0x0 c:/users/gordon/documents/university/computer_graphics_architecture/dev/devkitpro/devkitarm/bin/../lib/gcc/arm-eabi/4.6.1/../../../../arm-eabi/lib/thumb\libstdc++.a(bad_typeid.o)
 .bss           0x030020d9        0x0 c:/users/gordon/documents/university/computer_graphics_architecture/dev/devkitpro/devkitarm/bin/../lib/gcc/arm-eabi/4.6.1/../../../../arm-eabi/lib/thumb\libstdc++.a(class_type_info.o)
 .bss           0x030020d9        0x0 c:/users/gordon/documents/university/computer_graphics_architecture/dev/devkitpro/devkitarm/bin/../lib/gcc/arm-eabi/4.6.1/../../../../arm-eabi/lib/thumb\libstdc++.a(cp-demangle.o)
 .bss           0x030020d9        0x0 c:/users/gordon/documents/university/computer_graphics_architecture/dev/devkitpro/devkitarm/bin/../lib/gcc/arm-eabi/4.6.1/../../../../arm-eabi/lib/thumb\libstdc++.a(eh_type.o)
 .bss           0x030020d9        0x0 c:/users/gordon/documents/university/computer_graphics_architecture/dev/devkitpro/devkitarm/bin/../lib/gcc/arm-eabi/4.6.1/../../../../arm-eabi/lib/thumb\libstdc++.a(pbase_type_info.o)
 .bss           0x030020d9        0x0 c:/users/gordon/documents/university/computer_graphics_architecture/dev/devkitpro/devkitarm/bin/../lib/gcc/arm-eabi/4.6.1/thumb\libgcc.a(_udivsi3.o)
 .bss           0x030020d9        0x0 c:/users/gordon/documents/university/computer_graphics_architecture/dev/devkitpro/devkitarm/bin/../lib/gcc/arm-eabi/4.6.1/thumb\libgcc.a(_dvmd_tls.o)
 .bss           0x030020d9        0x0 c:/users/gordon/documents/university/computer_graphics_architecture/dev/devkitpro/devkitarm/bin/../lib/gcc/arm-eabi/4.6.1/thumb\libgcc.a(unwind-arm.o)
 .bss           0x030020d9        0x0 c:/users/gordon/documents/university/computer_graphics_architecture/dev/devkitpro/devkitarm/bin/../lib/gcc/arm-eabi/4.6.1/thumb\libgcc.a(libunwind.o)
 .bss           0x030020d9        0x0 c:/users/gordon/documents/university/computer_graphics_architecture/dev/devkitpro/devkitarm/bin/../lib/gcc/arm-eabi/4.6.1/thumb\libgcc.a(pr-support.o)
 .bss           0x030020d9        0x0 c:/users/gordon/documents/university/computer_graphics_architecture/dev/devkitpro/devkitarm/bin/../lib/gcc/arm-eabi/4.6.1/../../../../arm-eabi/lib/thumb\libg.a(lib_a-abort.o)
 .bss           0x030020d9        0x0 c:/users/gordon/documents/university/computer_graphics_architecture/dev/devkitpro/devkitarm/bin/../lib/gcc/arm-eabi/4.6.1/../../../../arm-eabi/lib/thumb\libg.a(lib_a-fputc.o)
 .bss           0x030020d9        0x0 c:/users/gordon/documents/university/computer_graphics_architecture/dev/devkitpro/devkitarm/bin/../lib/gcc/arm-eabi/4.6.1/../../../../arm-eabi/lib/thumb\libg.a(lib_a-fputs.o)
 .bss           0x030020d9        0x0 c:/users/gordon/documents/university/computer_graphics_architecture/dev/devkitpro/devkitarm/bin/../lib/gcc/arm-eabi/4.6.1/../../../../arm-eabi/lib/thumb\libg.a(lib_a-fvwrite.o)
 .bss           0x030020d9        0x0 c:/users/gordon/documents/university/computer_graphics_architecture/dev/devkitpro/devkitarm/bin/../lib/gcc/arm-eabi/4.6.1/../../../../arm-eabi/lib/thumb\libg.a(lib_a-fwrite.o)
 .bss           0x030020d9        0x0 c:/users/gordon/documents/university/computer_graphics_architecture/dev/devkitpro/devkitarm/bin/../lib/gcc/arm-eabi/4.6.1/../../../../arm-eabi/lib/thumb\libg.a(lib_a-impure.o)
 .bss           0x030020d9        0x0 c:/users/gordon/documents/university/computer_graphics_architecture/dev/devkitpro/devkitarm/bin/../lib/gcc/arm-eabi/4.6.1/../../../../arm-eabi/lib/thumb\libg.a(lib_a-init.o)
 .bss           0x030020d9        0x0 c:/users/gordon/documents/university/computer_graphics_architecture/dev/devkitpro/devkitarm/bin/../lib/gcc/arm-eabi/4.6.1/../../../../arm-eabi/lib/thumb\libg.a(lib_a-malloc.o)
 *fill*         0x030020d9        0x3 00
 .bss           0x030020dc       0x34 c:/users/gordon/documents/university/computer_graphics_architecture/dev/devkitpro/devkitarm/bin/../lib/gcc/arm-eabi/4.6.1/../../../../arm-eabi/lib/thumb\libg.a(lib_a-mallocr.o)
                0x030020dc                __malloc_top_pad
                0x030020e0                __malloc_current_mallinfo
                0x03002108                __malloc_max_sbrked_mem
                0x0300210c                __malloc_max_total_mem
 .bss           0x03002110        0x0 c:/users/gordon/documents/university/computer_graphics_architecture/dev/devkitpro/devkitarm/bin/../lib/gcc/arm-eabi/4.6.1/../../../../arm-eabi/lib/thumb\libg.a(lib_a-memchr.o)
 .bss           0x03002110        0x0 c:/users/gordon/documents/university/computer_graphics_architecture/dev/devkitpro/devkitarm/bin/../lib/gcc/arm-eabi/4.6.1/../../../../arm-eabi/lib/thumb\libg.a(lib_a-memcmp.o)
 .bss           0x03002110        0x0 c:/users/gordon/documents/university/computer_graphics_architecture/dev/devkitpro/devkitarm/bin/../lib/gcc/arm-eabi/4.6.1/../../../../arm-eabi/lib/thumb\libg.a(lib_a-memcpy.o)
 .bss           0x03002110        0x0 c:/users/gordon/documents/university/computer_graphics_architecture/dev/devkitpro/devkitarm/bin/../lib/gcc/arm-eabi/4.6.1/../../../../arm-eabi/lib/thumb\libg.a(lib_a-memmove.o)
 .bss           0x03002110        0x0 c:/users/gordon/documents/university/computer_graphics_architecture/dev/devkitpro/devkitarm/bin/../lib/gcc/arm-eabi/4.6.1/../../../../arm-eabi/lib/thumb\libg.a(lib_a-memset.o)
 .bss           0x03002110        0x0 c:/users/gordon/documents/university/computer_graphics_architecture/dev/devkitpro/devkitarm/bin/../lib/gcc/arm-eabi/4.6.1/../../../../arm-eabi/lib/thumb\libg.a(lib_a-mlock.o)
 .bss           0x03002110        0x0 c:/users/gordon/documents/university/computer_graphics_architecture/dev/devkitpro/devkitarm/bin/../lib/gcc/arm-eabi/4.6.1/../../../../arm-eabi/lib/thumb\libg.a(lib_a-putc.o)
 .bss           0x03002110        0x0 c:/users/gordon/documents/university/computer_graphics_architecture/dev/devkitpro/devkitarm/bin/../lib/gcc/arm-eabi/4.6.1/../../../../arm-eabi/lib/thumb\libg.a(lib_a-realloc.o)
 .bss           0x03002110        0x0 c:/users/gordon/documents/university/computer_graphics_architecture/dev/devkitpro/devkitarm/bin/../lib/gcc/arm-eabi/4.6.1/../../../../arm-eabi/lib/thumb\libg.a(lib_a-reallocr.o)
 .bss           0x03002110        0x0 c:/users/gordon/documents/university/computer_graphics_architecture/dev/devkitpro/devkitarm/bin/../lib/gcc/arm-eabi/4.6.1/../../../../arm-eabi/lib/thumb\libg.a(lib_a-signal.o)
 .bss           0x03002110        0x0 c:/users/gordon/documents/university/computer_graphics_architecture/dev/devkitpro/devkitarm/bin/../lib/gcc/arm-eabi/4.6.1/../../../../arm-eabi/lib/thumb\libg.a(lib_a-sprintf.o)
 .bss           0x03002110        0x0 c:/users/gordon/documents/university/computer_graphics_architecture/dev/devkitpro/devkitarm/bin/../lib/gcc/arm-eabi/4.6.1/../../../../arm-eabi/lib/thumb\libg.a(lib_a-strcmp.o)
 .bss           0x03002110        0x0 c:/users/gordon/documents/university/computer_graphics_architecture/dev/devkitpro/devkitarm/bin/../lib/gcc/arm-eabi/4.6.1/../../../../arm-eabi/lib/thumb\libg.a(lib_a-strcpy.o)
 .bss           0x03002110        0x0 c:/users/gordon/documents/university/computer_graphics_architecture/dev/devkitpro/devkitarm/bin/../lib/gcc/arm-eabi/4.6.1/../../../../arm-eabi/lib/thumb\libg.a(lib_a-strlen.o)
 .bss           0x03002110        0x0 c:/users/gordon/documents/university/computer_graphics_architecture/dev/devkitpro/devkitarm/bin/../lib/gcc/arm-eabi/4.6.1/../../../../arm-eabi/lib/thumb\libg.a(lib_a-strncmp.o)
 .bss           0x03002110        0x0 c:/users/gordon/documents/university/computer_graphics_architecture/dev/devkitpro/devkitarm/bin/../lib/gcc/arm-eabi/4.6.1/../../../../arm-eabi/lib/thumb\libg.a(lib_a-svfprintf.o)
 .bss           0x03002110        0x0 c:/users/gordon/documents/university/computer_graphics_architecture/dev/devkitpro/devkitarm/bin/../lib/gcc/arm-eabi/4.6.1/../../../../arm-eabi/lib/thumb\libg.a(lib_a-syswrite.o)
 .bss           0x03002110        0x0 c:/users/gordon/documents/university/computer_graphics_architecture/dev/devkitpro/devkitarm/bin/../lib/gcc/arm-eabi/4.6.1/../../../../arm-eabi/lib/thumb\libg.a(lib_a-wbuf.o)
 .bss           0x03002110        0x0 c:/users/gordon/documents/university/computer_graphics_architecture/dev/devkitpro/devkitarm/bin/../lib/gcc/arm-eabi/4.6.1/../../../../arm-eabi/lib/thumb\libg.a(lib_a-wcrtomb.o)
 .bss           0x03002110        0x0 c:/users/gordon/documents/university/computer_graphics_architecture/dev/devkitpro/devkitarm/bin/../lib/gcc/arm-eabi/4.6.1/../../../../arm-eabi/lib/thumb\libg.a(lib_a-wcsrtombs.o)
 .bss           0x03002110        0x0 c:/users/gordon/documents/university/computer_graphics_architecture/dev/devkitpro/devkitarm/bin/../lib/gcc/arm-eabi/4.6.1/../../../../arm-eabi/lib/thumb\libg.a(lib_a-wctomb_r.o)
 .bss           0x03002110        0x0 c:/users/gordon/documents/university/computer_graphics_architecture/dev/devkitpro/devkitarm/bin/../lib/gcc/arm-eabi/4.6.1/../../../../arm-eabi/lib/thumb\libg.a(lib_a-wsetup.o)
 .bss           0x03002110        0x0 c:/users/gordon/documents/university/computer_graphics_architecture/dev/devkitpro/devkitarm/bin/../lib/gcc/arm-eabi/4.6.1/../../../../arm-eabi/lib/thumb\libg.a(lib_a-dtoa.o)
 .bss           0x03002110        0x0 c:/users/gordon/documents/university/computer_graphics_architecture/dev/devkitpro/devkitarm/bin/../lib/gcc/arm-eabi/4.6.1/../../../../arm-eabi/lib/thumb\libg.a(lib_a-fflush.o)
 .bss           0x03002110        0x0 c:/users/gordon/documents/university/computer_graphics_architecture/dev/devkitpro/devkitarm/bin/../lib/gcc/arm-eabi/4.6.1/../../../../arm-eabi/lib/thumb\libg.a(lib_a-findfp.o)
 .bss           0x03002110        0x0 c:/users/gordon/documents/university/computer_graphics_architecture/dev/devkitpro/devkitarm/bin/../lib/gcc/arm-eabi/4.6.1/../../../../arm-eabi/lib/thumb\libg.a(lib_a-freer.o)
 .bss           0x03002110        0x0 c:/users/gordon/documents/university/computer_graphics_architecture/dev/devkitpro/devkitarm/bin/../lib/gcc/arm-eabi/4.6.1/../../../../arm-eabi/lib/thumb\libg.a(lib_a-fwalk.o)
 .bss           0x03002110      0x2b8 c:/users/gordon/documents/university/computer_graphics_architecture/dev/devkitpro/devkitarm/bin/../lib/gcc/arm-eabi/4.6.1/../../../../arm-eabi/lib/thumb\libg.a(lib_a-locale.o)
                0x030023bc                _PathLocale
                0x030023c0                __mlocale_changed
                0x030023c4                __nlocale_changed
 .bss           0x030023c8        0x0 c:/users/gordon/documents/university/computer_graphics_architecture/dev/devkitpro/devkitarm/bin/../lib/gcc/arm-eabi/4.6.1/../../../../arm-eabi/lib/thumb\libg.a(lib_a-makebuf.o)
 .bss           0x030023c8        0x0 c:/users/gordon/documents/university/computer_graphics_architecture/dev/devkitpro/devkitarm/bin/../lib/gcc/arm-eabi/4.6.1/../../../../arm-eabi/lib/thumb\libg.a(lib_a-mbtowc_r.o)
 .bss           0x030023c8        0x0 c:/users/gordon/documents/university/computer_graphics_architecture/dev/devkitpro/devkitarm/bin/../lib/gcc/arm-eabi/4.6.1/../../../../arm-eabi/lib/thumb\libg.a(lib_a-mprec.o)
 .bss           0x030023c8        0x0 c:/users/gordon/documents/university/computer_graphics_architecture/dev/devkitpro/devkitarm/bin/../lib/gcc/arm-eabi/4.6.1/../../../../arm-eabi/lib/thumb\libg.a(lib_a-s_fpclassify.o)
 .bss           0x030023c8        0x0 c:/users/gordon/documents/university/computer_graphics_architecture/dev/devkitpro/devkitarm/bin/../lib/gcc/arm-eabi/4.6.1/../../../../arm-eabi/lib/thumb\libg.a(lib_a-stdio.o)
 .bss           0x030023c8        0x0 c:/users/gordon/documents/university/computer_graphics_architecture/dev/devkitpro/devkitarm/bin/../lib/gcc/arm-eabi/4.6.1/../../../../arm-eabi/lib/thumb\libg.a(lib_a-strcasecmp.o)
 .bss           0x030023c8        0x0 c:/users/gordon/documents/university/computer_graphics_architecture/dev/devkitpro/devkitarm/bin/../lib/gcc/arm-eabi/4.6.1/../../../../arm-eabi/lib/thumb\libg.a(lib_a-strcat.o)
 .bss           0x030023c8        0x0 c:/users/gordon/documents/university/computer_graphics_architecture/dev/devkitpro/devkitarm/bin/../lib/gcc/arm-eabi/4.6.1/../../../../arm-eabi/lib/thumb\libg.a(lib_a-strchr.o)
 .bss           0x030023c8        0x0 c:/users/gordon/documents/university/computer_graphics_architecture/dev/devkitpro/devkitarm/bin/../lib/gcc/arm-eabi/4.6.1/../../../../arm-eabi/lib/thumb\libg.a(lib_a-strlcpy.o)
 .bss           0x030023c8        0x0 c:/users/gordon/documents/university/computer_graphics_architecture/dev/devkitpro/devkitarm/bin/../lib/gcc/arm-eabi/4.6.1/../../../../arm-eabi/lib/thumb\libg.a(lib_a-strncasecmp.o)
 .bss           0x030023c8        0x0 c:/users/gordon/documents/university/computer_graphics_architecture/dev/devkitpro/devkitarm/bin/../lib/gcc/arm-eabi/4.6.1/../../../../arm-eabi/lib/thumb\libg.a(lib_a-strncpy.o)
 .bss           0x030023c8        0x0 c:/users/gordon/documents/university/computer_graphics_architecture/dev/devkitpro/devkitarm/bin/../lib/gcc/arm-eabi/4.6.1/../../../../arm-eabi/lib/thumb\libg.a(lib_a-strtol.o)
 .bss           0x030023c8        0x0 c:/users/gordon/documents/university/computer_graphics_architecture/dev/devkitpro/devkitarm/bin/../lib/gcc/arm-eabi/4.6.1/../../../../arm-eabi/lib/thumb\libg.a(lib_a-svfiprintf.o)
 .bss           0x030023c8        0x0 c:/users/gordon/documents/university/computer_graphics_architecture/dev/devkitpro/devkitarm/bin/../lib/gcc/arm-eabi/4.6.1/../../../../arm-eabi/lib/thumb\libg.a(lib_a-wcsnrtombs.o)
 .bss           0x030023c8        0x0 c:/users/gordon/documents/university/computer_graphics_architecture/dev/devkitpro/devkitarm/bin/../lib/gcc/arm-eabi/4.6.1/../../../../arm-eabi/lib/thumb\libg.a(lib_a-callocr.o)
 .bss           0x030023c8        0x0 c:/users/gordon/documents/university/computer_graphics_architecture/dev/devkitpro/devkitarm/bin/../lib/gcc/arm-eabi/4.6.1/../../../../arm-eabi/lib/thumb\libg.a(lib_a-ctype_.o)
 .bss           0x030023c8        0x0 c:/users/gordon/documents/university/computer_graphics_architecture/dev/devkitpro/devkitarm/bin/../lib/gcc/arm-eabi/4.6.1/../../../../arm-eabi/lib/thumb\libg.a(lib_a-fclose.o)
 .bss           0x030023c8        0x0 c:/users/gordon/documents/university/computer_graphics_architecture/dev/devkitpro/devkitarm/bin/../lib/gcc/arm-eabi/4.6.1/../../../../arm-eabi/lib/thumb\libg.a(lib_a-getenv_r.o)
 .bss           0x030023c8        0x4 c:/users/gordon/documents/university/computer_graphics_architecture/dev/devkitpro/devkitarm/bin/../lib/gcc/arm-eabi/4.6.1/../../../../arm-eabi/lib/thumb\libg.a(lib_a-environ.o)
 .bss           0x030023cc        0x0 c:/users/gordon/documents/university/computer_graphics_architecture/dev/devkitpro/devkitarm/bin/../lib/gcc/arm-eabi/4.6.1/../../../../arm-eabi/lib/thumb\libg.a(lib_a-envlock.o)
 .bss           0x030023cc        0x0 c:/users/gordon/documents/university/computer_graphics_architecture/dev/devkitpro/devkitarm/bin/../lib/gcc/arm-eabi/4.6.1/../../../../arm-eabi/lib/thumb\libsysbase.a(close.o)
 .bss           0x030023cc        0x0 c:/users/gordon/documents/university/computer_graphics_architecture/dev/devkitpro/devkitarm/bin/../lib/gcc/arm-eabi/4.6.1/../../../../arm-eabi/lib/thumb\libsysbase.a(fstat.o)
 .bss           0x030023cc        0x0 c:/users/gordon/documents/university/computer_graphics_architecture/dev/devkitpro/devkitarm/bin/../lib/gcc/arm-eabi/4.6.1/../../../../arm-eabi/lib/thumb\libsysbase.a(getpid.o)
 .bss           0x030023cc        0x0 c:/users/gordon/documents/university/computer_graphics_architecture/dev/devkitpro/devkitarm/bin/../lib/gcc/arm-eabi/4.6.1/../../../../arm-eabi/lib/thumb\libsysbase.a(isatty.o)
 .bss           0x030023cc        0x0 c:/users/gordon/documents/university/computer_graphics_architecture/dev/devkitpro/devkitarm/bin/../lib/gcc/arm-eabi/4.6.1/../../../../arm-eabi/lib/thumb\libsysbase.a(kill.o)
 .bss           0x030023cc        0x0 c:/users/gordon/documents/university/computer_graphics_architecture/dev/devkitpro/devkitarm/bin/../lib/gcc/arm-eabi/4.6.1/../../../../arm-eabi/lib/thumb\libsysbase.a(lseek.o)
 .bss           0x030023cc        0x0 c:/users/gordon/documents/university/computer_graphics_architecture/dev/devkitpro/devkitarm/bin/../lib/gcc/arm-eabi/4.6.1/../../../../arm-eabi/lib/thumb\libsysbase.a(read.o)
 .bss           0x030023cc        0x4 c:/users/gordon/documents/university/computer_graphics_architecture/dev/devkitpro/devkitarm/bin/../lib/gcc/arm-eabi/4.6.1/../../../../arm-eabi/lib/thumb\libsysbase.a(sbrk.o)
 .bss           0x030023d0        0x0 c:/users/gordon/documents/university/computer_graphics_architecture/dev/devkitpro/devkitarm/bin/../lib/gcc/arm-eabi/4.6.1/../../../../arm-eabi/lib/thumb\libsysbase.a(write.o)
 .bss           0x030023d0        0x0 c:/users/gordon/documents/university/computer_graphics_architecture/dev/devkitpro/devkitarm/bin/../lib/gcc/arm-eabi/4.6.1/../../../../arm-eabi/lib/thumb\libsysbase.a(_exit.o)
 .bss           0x030023d0        0x8 c:/users/gordon/documents/university/computer_graphics_architecture/dev/devkitpro/devkitarm/bin/../lib/gcc/arm-eabi/4.6.1/../../../../arm-eabi/lib/thumb\libsysbase.a(malloc_vars.o)
                0x030023d0                fake_heap_start
                0x030023d4                fake_heap_end
 .bss           0x030023d8        0x8 c:/users/gordon/documents/university/computer_graphics_architecture/dev/devkitpro/devkitarm/bin/../lib/gcc/arm-eabi/4.6.1/../../../../arm-eabi/lib/thumb\libsysbase.a(syscall_support.o)
                0x030023d8                __syscalls
 .bss           0x030023e0     0x1000 c:/users/gordon/documents/university/computer_graphics_architecture/dev/devkitpro/devkitarm/bin/../lib/gcc/arm-eabi/4.6.1/../../../../arm-eabi/lib/thumb\libsysbase.a(handle_manager.o)
 .bss           0x030033e0        0x0 c:/users/gordon/documents/university/computer_graphics_architecture/dev/devkitpro/devkitarm/bin/../lib/gcc/arm-eabi/4.6.1/../../../../arm-eabi/lib/thumb\libsysbase.a(iosupport.o)
 .bss           0x030033e0        0x0 c:/users/gordon/documents/university/computer_graphics_architecture/dev/devkitpro/devkitarm/bin/../lib/gcc/arm-eabi/4.6.1/thumb\libgcc.a(_divsi3.o)
 .bss           0x030033e0        0x0 c:/users/gordon/documents/university/computer_graphics_architecture/dev/devkitpro/devkitarm/bin/../lib/gcc/arm-eabi/4.6.1/thumb\libgcc.a(_arm_addsubdf3.o)
 .bss           0x030033e0        0x0 c:/users/gordon/documents/university/computer_graphics_architecture/dev/devkitpro/devkitarm/bin/../lib/gcc/arm-eabi/4.6.1/thumb\libgcc.a(_arm_muldivdf3.o)
 .bss           0x030033e0        0x0 c:/users/gordon/documents/university/computer_graphics_architecture/dev/devkitpro/devkitarm/bin/../lib/gcc/arm-eabi/4.6.1/thumb\libgcc.a(_arm_cmpdf2.o)
 .bss           0x030033e0        0x0 c:/users/gordon/documents/university/computer_graphics_architecture/dev/devkitpro/devkitarm/bin/../lib/gcc/arm-eabi/4.6.1/thumb\libgcc.a(_arm_fixdfsi.o)
 .bss           0x030033e0        0x0 c:/users/gordon/documents/university/computer_graphics_architecture/dev/devkitpro/devkitarm/bin/../lib/gcc/arm-eabi/4.6.1/thumb\libgcc.a(_aeabi_uldivmod.o)
 .bss           0x030033e0        0x0 c:/users/gordon/documents/university/computer_graphics_architecture/dev/devkitpro/devkitarm/bin/../lib/gcc/arm-eabi/4.6.1/thumb\libgcc.a(bpabi.o)
 .bss           0x030033e0        0x0 c:/users/gordon/documents/university/computer_graphics_architecture/dev/devkitpro/devkitarm/bin/../lib/gcc/arm-eabi/4.6.1/thumb\libgcc.a(_muldi3.o)
 .bss           0x030033e0        0x0 c:/users/gordon/documents/university/computer_graphics_architecture/dev/devkitpro/devkitarm/bin/../lib/gcc/arm-eabi/4.6.1/thumb\libgcc.a(_divdi3.o)
 .bss           0x030033e0        0x0 c:/users/gordon/documents/university/computer_graphics_architecture/dev/devkitpro/devkitarm/bin/../lib/gcc/arm-eabi/4.6.1/thumb\libgcc.a(_udivdi3.o)
 .bss           0x030033e0        0x0 c:/users/gordon/documents/university/computer_graphics_architecture/dev/devkitpro/devkitarm/bin/../lib/gcc/arm-eabi/4.6.1/thumb\libgcc.a(_clzsi2.o)
 .bss           0x030033e0        0x0 c:/users/gordon/documents/university/computer_graphics_architecture/dev/devkitpro/devkitarm/bin/../lib/gcc/arm-eabi/4.6.1/thumb/crtend.o
 .bss           0x030033e0        0x0 c:/users/gordon/documents/university/computer_graphics_architecture/dev/devkitpro/devkitarm/bin/../lib/gcc/arm-eabi/4.6.1/thumb/crtn.o
 *(COMMON)
                0x030033e0                . = ALIGN (0x4)
                0x030033e0                __bss_end__ = ABSOLUTE (.)

.data           0x030033e0      0xa20 load address 0x08017e74
                0x030033e0                __data_start__ = ABSOLUTE (.)
 *(.data)
 .data          0x030033e0        0x0 c:/users/gordon/documents/university/computer_graphics_architecture/dev/devkitpro/devkitarm/bin/../lib/gcc/arm-eabi/4.6.1/../../../../arm-eabi/lib/thumb/gba_crt0.o
 .data          0x030033e0        0x0 c:/users/gordon/documents/university/computer_graphics_architecture/dev/devkitpro/devkitarm/bin/../lib/gcc/arm-eabi/4.6.1/thumb/crti.o
 .data          0x030033e0        0x4 c:/users/gordon/documents/university/computer_graphics_architecture/dev/devkitpro/devkitarm/bin/../lib/gcc/arm-eabi/4.6.1/thumb/crtbegin.o
                0x030033e0                __dso_handle
 .data          0x030033e4        0x0 tiles.o
 .data          0x030033e4        0x0 font.o
 .data          0x030033e4        0x4 gba.o
                0x030033e4                BackBuffer
 .data          0x030033e8        0x0 main.o
 .data          0x030033e8        0x0 player.o
 .data          0x030033e8        0x0 util.o
 .data          0x030033e8        0x0 world.o
 .data          0x030033e8        0x0 c:/users/gordon/documents/university/computer_graphics_architecture/dev/devkitpro/devkitarm/bin/../lib/gcc/arm-eabi/4.6.1/../../../../arm-eabi/lib/thumb\libstdc++.a(new_op.o)
 .data          0x030033e8        0x0 c:/users/gordon/documents/university/computer_graphics_architecture/dev/devkitpro/devkitarm/bin/../lib/gcc/arm-eabi/4.6.1/../../../../arm-eabi/lib/thumb\libstdc++.a(bad_alloc.o)
 .data          0x030033e8        0x0 c:/users/gordon/documents/university/computer_graphics_architecture/dev/devkitpro/devkitarm/bin/../lib/gcc/arm-eabi/4.6.1/../../../../arm-eabi/lib/thumb\libstdc++.a(del_op.o)
 .data          0x030033e8        0x0 c:/users/gordon/documents/university/computer_graphics_architecture/dev/devkitpro/devkitarm/bin/../lib/gcc/arm-eabi/4.6.1/../../../../arm-eabi/lib/thumb\libstdc++.a(eh_alloc.o)
 .data          0x030033e8        0x0 c:/users/gordon/documents/university/computer_graphics_architecture/dev/devkitpro/devkitarm/bin/../lib/gcc/arm-eabi/4.6.1/../../../../arm-eabi/lib/thumb\libstdc++.a(eh_arm.o)
 .data          0x030033e8        0x0 c:/users/gordon/documents/university/computer_graphics_architecture/dev/devkitpro/devkitarm/bin/../lib/gcc/arm-eabi/4.6.1/../../../../arm-eabi/lib/thumb\libstdc++.a(eh_aux_runtime.o)
 .data          0x030033e8        0x0 c:/users/gordon/documents/university/computer_graphics_architecture/dev/devkitpro/devkitarm/bin/../lib/gcc/arm-eabi/4.6.1/../../../../arm-eabi/lib/thumb\libstdc++.a(eh_call.o)
 .data          0x030033e8        0x0 c:/users/gordon/documents/university/computer_graphics_architecture/dev/devkitpro/devkitarm/bin/../lib/gcc/arm-eabi/4.6.1/../../../../arm-eabi/lib/thumb\libstdc++.a(eh_catch.o)
 .data          0x030033e8        0x0 c:/users/gordon/documents/university/computer_graphics_architecture/dev/devkitpro/devkitarm/bin/../lib/gcc/arm-eabi/4.6.1/../../../../arm-eabi/lib/thumb\libstdc++.a(eh_exception.o)
 .data          0x030033e8        0x0 c:/users/gordon/documents/university/computer_graphics_architecture/dev/devkitpro/devkitarm/bin/../lib/gcc/arm-eabi/4.6.1/../../../../arm-eabi/lib/thumb\libstdc++.a(eh_globals.o)
 .data          0x030033e8        0x0 c:/users/gordon/documents/university/computer_graphics_architecture/dev/devkitpro/devkitarm/bin/../lib/gcc/arm-eabi/4.6.1/../../../../arm-eabi/lib/thumb\libstdc++.a(eh_personality.o)
 .data          0x030033e8        0x0 c:/users/gordon/documents/university/computer_graphics_architecture/dev/devkitpro/devkitarm/bin/../lib/gcc/arm-eabi/4.6.1/../../../../arm-eabi/lib/thumb\libstdc++.a(eh_terminate.o)
 .data          0x030033e8        0x0 c:/users/gordon/documents/university/computer_graphics_architecture/dev/devkitpro/devkitarm/bin/../lib/gcc/arm-eabi/4.6.1/../../../../arm-eabi/lib/thumb\libstdc++.a(eh_term_handler.o)
 .data          0x030033e8        0x0 c:/users/gordon/documents/university/computer_graphics_architecture/dev/devkitpro/devkitarm/bin/../lib/gcc/arm-eabi/4.6.1/../../../../arm-eabi/lib/thumb\libstdc++.a(eh_throw.o)
 .data          0x030033e8        0x0 c:/users/gordon/documents/university/computer_graphics_architecture/dev/devkitpro/devkitarm/bin/../lib/gcc/arm-eabi/4.6.1/../../../../arm-eabi/lib/thumb\libstdc++.a(eh_unex_handler.o)
 .data          0x030033e8        0x0 c:/users/gordon/documents/university/computer_graphics_architecture/dev/devkitpro/devkitarm/bin/../lib/gcc/arm-eabi/4.6.1/../../../../arm-eabi/lib/thumb\libstdc++.a(fundamental_type_info.o)
 .data          0x030033e8        0x0 c:/users/gordon/documents/university/computer_graphics_architecture/dev/devkitpro/devkitarm/bin/../lib/gcc/arm-eabi/4.6.1/../../../../arm-eabi/lib/thumb\libstdc++.a(new_handler.o)
 .data          0x030033e8        0x0 c:/users/gordon/documents/university/computer_graphics_architecture/dev/devkitpro/devkitarm/bin/../lib/gcc/arm-eabi/4.6.1/../../../../arm-eabi/lib/thumb\libstdc++.a(pointer_type_info.o)
 .data          0x030033e8        0x0 c:/users/gordon/documents/university/computer_graphics_architecture/dev/devkitpro/devkitarm/bin/../lib/gcc/arm-eabi/4.6.1/../../../../arm-eabi/lib/thumb\libstdc++.a(pure.o)
 .data          0x030033e8        0x0 c:/users/gordon/documents/university/computer_graphics_architecture/dev/devkitpro/devkitarm/bin/../lib/gcc/arm-eabi/4.6.1/../../../../arm-eabi/lib/thumb\libstdc++.a(si_class_type_info.o)
 .data          0x030033e8        0x0 c:/users/gordon/documents/university/computer_graphics_architecture/dev/devkitpro/devkitarm/bin/../lib/gcc/arm-eabi/4.6.1/../../../../arm-eabi/lib/thumb\libstdc++.a(tinfo.o)
 .data          0x030033e8        0x0 c:/users/gordon/documents/university/computer_graphics_architecture/dev/devkitpro/devkitarm/bin/../lib/gcc/arm-eabi/4.6.1/../../../../arm-eabi/lib/thumb\libstdc++.a(vterminate.o)
 .data          0x030033e8        0x0 c:/users/gordon/documents/university/computer_graphics_architecture/dev/devkitpro/devkitarm/bin/../lib/gcc/arm-eabi/4.6.1/../../../../arm-eabi/lib/thumb\libstdc++.a(bad_cast.o)
 .data          0x030033e8        0x0 c:/users/gordon/documents/university/computer_graphics_architecture/dev/devkitpro/devkitarm/bin/../lib/gcc/arm-eabi/4.6.1/../../../../arm-eabi/lib/thumb\libstdc++.a(bad_typeid.o)
 .data          0x030033e8        0x0 c:/users/gordon/documents/university/computer_graphics_architecture/dev/devkitpro/devkitarm/bin/../lib/gcc/arm-eabi/4.6.1/../../../../arm-eabi/lib/thumb\libstdc++.a(class_type_info.o)
 .data          0x030033e8        0x0 c:/users/gordon/documents/university/computer_graphics_architecture/dev/devkitpro/devkitarm/bin/../lib/gcc/arm-eabi/4.6.1/../../../../arm-eabi/lib/thumb\libstdc++.a(cp-demangle.o)
 .data          0x030033e8        0x0 c:/users/gordon/documents/university/computer_graphics_architecture/dev/devkitpro/devkitarm/bin/../lib/gcc/arm-eabi/4.6.1/../../../../arm-eabi/lib/thumb\libstdc++.a(eh_type.o)
 .data          0x030033e8        0x0 c:/users/gordon/documents/university/computer_graphics_architecture/dev/devkitpro/devkitarm/bin/../lib/gcc/arm-eabi/4.6.1/../../../../arm-eabi/lib/thumb\libstdc++.a(pbase_type_info.o)
 .data          0x030033e8        0x0 c:/users/gordon/documents/university/computer_graphics_architecture/dev/devkitpro/devkitarm/bin/../lib/gcc/arm-eabi/4.6.1/thumb\libgcc.a(_udivsi3.o)
 .data          0x030033e8        0x0 c:/users/gordon/documents/university/computer_graphics_architecture/dev/devkitpro/devkitarm/bin/../lib/gcc/arm-eabi/4.6.1/thumb\libgcc.a(_dvmd_tls.o)
 .data          0x030033e8        0x0 c:/users/gordon/documents/university/computer_graphics_architecture/dev/devkitpro/devkitarm/bin/../lib/gcc/arm-eabi/4.6.1/thumb\libgcc.a(unwind-arm.o)
 .data          0x030033e8        0x0 c:/users/gordon/documents/university/computer_graphics_architecture/dev/devkitpro/devkitarm/bin/../lib/gcc/arm-eabi/4.6.1/thumb\libgcc.a(libunwind.o)
 .data          0x030033e8        0x0 c:/users/gordon/documents/university/computer_graphics_architecture/dev/devkitpro/devkitarm/bin/../lib/gcc/arm-eabi/4.6.1/thumb\libgcc.a(pr-support.o)
 .data          0x030033e8        0x0 c:/users/gordon/documents/university/computer_graphics_architecture/dev/devkitpro/devkitarm/bin/../lib/gcc/arm-eabi/4.6.1/../../../../arm-eabi/lib/thumb\libg.a(lib_a-abort.o)
 .data          0x030033e8        0x0 c:/users/gordon/documents/university/computer_graphics_architecture/dev/devkitpro/devkitarm/bin/../lib/gcc/arm-eabi/4.6.1/../../../../arm-eabi/lib/thumb\libg.a(lib_a-fputc.o)
 .data          0x030033e8        0x0 c:/users/gordon/documents/university/computer_graphics_architecture/dev/devkitpro/devkitarm/bin/../lib/gcc/arm-eabi/4.6.1/../../../../arm-eabi/lib/thumb\libg.a(lib_a-fputs.o)
 .data          0x030033e8        0x0 c:/users/gordon/documents/university/computer_graphics_architecture/dev/devkitpro/devkitarm/bin/../lib/gcc/arm-eabi/4.6.1/../../../../arm-eabi/lib/thumb\libg.a(lib_a-fvwrite.o)
 .data          0x030033e8        0x0 c:/users/gordon/documents/university/computer_graphics_architecture/dev/devkitpro/devkitarm/bin/../lib/gcc/arm-eabi/4.6.1/../../../../arm-eabi/lib/thumb\libg.a(lib_a-fwrite.o)
 .data          0x030033e8      0x430 c:/users/gordon/documents/university/computer_graphics_architecture/dev/devkitpro/devkitarm/bin/../lib/gcc/arm-eabi/4.6.1/../../../../arm-eabi/lib/thumb\libg.a(lib_a-impure.o)
                0x030033e8                _impure_ptr
 .data          0x03003818        0x0 c:/users/gordon/documents/university/computer_graphics_architecture/dev/devkitpro/devkitarm/bin/../lib/gcc/arm-eabi/4.6.1/../../../../arm-eabi/lib/thumb\libg.a(lib_a-init.o)
 .data          0x03003818        0x0 c:/users/gordon/documents/university/computer_graphics_architecture/dev/devkitpro/devkitarm/bin/../lib/gcc/arm-eabi/4.6.1/../../../../arm-eabi/lib/thumb\libg.a(lib_a-malloc.o)
 .data          0x03003818      0x410 c:/users/gordon/documents/university/computer_graphics_architecture/dev/devkitpro/devkitarm/bin/../lib/gcc/arm-eabi/4.6.1/../../../../arm-eabi/lib/thumb\libg.a(lib_a-mallocr.o)
                0x03003818                __malloc_av_
                0x03003c20                __malloc_sbrk_base
                0x03003c24                __malloc_trim_threshold
 .data          0x03003c28        0x0 c:/users/gordon/documents/university/computer_graphics_architecture/dev/devkitpro/devkitarm/bin/../lib/gcc/arm-eabi/4.6.1/../../../../arm-eabi/lib/thumb\libg.a(lib_a-memchr.o)
 .data          0x03003c28        0x0 c:/users/gordon/documents/university/computer_graphics_architecture/dev/devkitpro/devkitarm/bin/../lib/gcc/arm-eabi/4.6.1/../../../../arm-eabi/lib/thumb\libg.a(lib_a-memcmp.o)
 .data          0x03003c28        0x0 c:/users/gordon/documents/university/computer_graphics_architecture/dev/devkitpro/devkitarm/bin/../lib/gcc/arm-eabi/4.6.1/../../../../arm-eabi/lib/thumb\libg.a(lib_a-memcpy.o)
 .data          0x03003c28        0x0 c:/users/gordon/documents/university/computer_graphics_architecture/dev/devkitpro/devkitarm/bin/../lib/gcc/arm-eabi/4.6.1/../../../../arm-eabi/lib/thumb\libg.a(lib_a-memmove.o)
 .data          0x03003c28        0x0 c:/users/gordon/documents/university/computer_graphics_architecture/dev/devkitpro/devkitarm/bin/../lib/gcc/arm-eabi/4.6.1/../../../../arm-eabi/lib/thumb\libg.a(lib_a-memset.o)
 .data          0x03003c28        0x0 c:/users/gordon/documents/university/computer_graphics_architecture/dev/devkitpro/devkitarm/bin/../lib/gcc/arm-eabi/4.6.1/../../../../arm-eabi/lib/thumb\libg.a(lib_a-mlock.o)
 .data          0x03003c28        0x0 c:/users/gordon/documents/university/computer_graphics_architecture/dev/devkitpro/devkitarm/bin/../lib/gcc/arm-eabi/4.6.1/../../../../arm-eabi/lib/thumb\libg.a(lib_a-putc.o)
 .data          0x03003c28        0x0 c:/users/gordon/documents/university/computer_graphics_architecture/dev/devkitpro/devkitarm/bin/../lib/gcc/arm-eabi/4.6.1/../../../../arm-eabi/lib/thumb\libg.a(lib_a-realloc.o)
 .data          0x03003c28        0x0 c:/users/gordon/documents/university/computer_graphics_architecture/dev/devkitpro/devkitarm/bin/../lib/gcc/arm-eabi/4.6.1/../../../../arm-eabi/lib/thumb\libg.a(lib_a-reallocr.o)
 .data          0x03003c28        0x0 c:/users/gordon/documents/university/computer_graphics_architecture/dev/devkitpro/devkitarm/bin/../lib/gcc/arm-eabi/4.6.1/../../../../arm-eabi/lib/thumb\libg.a(lib_a-signal.o)
 .data          0x03003c28        0x0 c:/users/gordon/documents/university/computer_graphics_architecture/dev/devkitpro/devkitarm/bin/../lib/gcc/arm-eabi/4.6.1/../../../../arm-eabi/lib/thumb\libg.a(lib_a-sprintf.o)
 .data          0x03003c28        0x0 c:/users/gordon/documents/university/computer_graphics_architecture/dev/devkitpro/devkitarm/bin/../lib/gcc/arm-eabi/4.6.1/../../../../arm-eabi/lib/thumb\libg.a(lib_a-strcmp.o)
 .data          0x03003c28        0x0 c:/users/gordon/documents/university/computer_graphics_architecture/dev/devkitpro/devkitarm/bin/../lib/gcc/arm-eabi/4.6.1/../../../../arm-eabi/lib/thumb\libg.a(lib_a-strcpy.o)
 .data          0x03003c28        0x0 c:/users/gordon/documents/university/computer_graphics_architecture/dev/devkitpro/devkitarm/bin/../lib/gcc/arm-eabi/4.6.1/../../../../arm-eabi/lib/thumb\libg.a(lib_a-strlen.o)
 .data          0x03003c28        0x0 c:/users/gordon/documents/university/computer_graphics_architecture/dev/devkitpro/devkitarm/bin/../lib/gcc/arm-eabi/4.6.1/../../../../arm-eabi/lib/thumb\libg.a(lib_a-strncmp.o)
 .data          0x03003c28        0x0 c:/users/gordon/documents/university/computer_graphics_architecture/dev/devkitpro/devkitarm/bin/../lib/gcc/arm-eabi/4.6.1/../../../../arm-eabi/lib/thumb\libg.a(lib_a-svfprintf.o)
 .data          0x03003c28        0x0 c:/users/gordon/documents/university/computer_graphics_architecture/dev/devkitpro/devkitarm/bin/../lib/gcc/arm-eabi/4.6.1/../../../../arm-eabi/lib/thumb\libg.a(lib_a-syswrite.o)
 .data          0x03003c28        0x0 c:/users/gordon/documents/university/computer_graphics_architecture/dev/devkitpro/devkitarm/bin/../lib/gcc/arm-eabi/4.6.1/../../../../arm-eabi/lib/thumb\libg.a(lib_a-wbuf.o)
 .data          0x03003c28        0x0 c:/users/gordon/documents/university/computer_graphics_architecture/dev/devkitpro/devkitarm/bin/../lib/gcc/arm-eabi/4.6.1/../../../../arm-eabi/lib/thumb\libg.a(lib_a-wcrtomb.o)
 .data          0x03003c28        0x0 c:/users/gordon/documents/university/computer_graphics_architecture/dev/devkitpro/devkitarm/bin/../lib/gcc/arm-eabi/4.6.1/../../../../arm-eabi/lib/thumb\libg.a(lib_a-wcsrtombs.o)
 .data          0x03003c28        0x4 c:/users/gordon/documents/university/computer_graphics_architecture/dev/devkitpro/devkitarm/bin/../lib/gcc/arm-eabi/4.6.1/../../../../arm-eabi/lib/thumb\libg.a(lib_a-wctomb_r.o)
                0x03003c28                __wctomb
 .data          0x03003c2c        0x0 c:/users/gordon/documents/university/computer_graphics_architecture/dev/devkitpro/devkitarm/bin/../lib/gcc/arm-eabi/4.6.1/../../../../arm-eabi/lib/thumb\libg.a(lib_a-wsetup.o)
 .data          0x03003c2c        0x0 c:/users/gordon/documents/university/computer_graphics_architecture/dev/devkitpro/devkitarm/bin/../lib/gcc/arm-eabi/4.6.1/../../../../arm-eabi/lib/thumb\libg.a(lib_a-dtoa.o)
 .data          0x03003c2c        0x0 c:/users/gordon/documents/university/computer_graphics_architecture/dev/devkitpro/devkitarm/bin/../lib/gcc/arm-eabi/4.6.1/../../../../arm-eabi/lib/thumb\libg.a(lib_a-fflush.o)
 .data          0x03003c2c        0x0 c:/users/gordon/documents/university/computer_graphics_architecture/dev/devkitpro/devkitarm/bin/../lib/gcc/arm-eabi/4.6.1/../../../../arm-eabi/lib/thumb\libg.a(lib_a-findfp.o)
 .data          0x03003c2c        0x0 c:/users/gordon/documents/university/computer_graphics_architecture/dev/devkitpro/devkitarm/bin/../lib/gcc/arm-eabi/4.6.1/../../../../arm-eabi/lib/thumb\libg.a(lib_a-freer.o)
 .data          0x03003c2c        0x0 c:/users/gordon/documents/university/computer_graphics_architecture/dev/devkitpro/devkitarm/bin/../lib/gcc/arm-eabi/4.6.1/../../../../arm-eabi/lib/thumb\libg.a(lib_a-fwalk.o)
 .data          0x03003c2c      0x17c c:/users/gordon/documents/university/computer_graphics_architecture/dev/devkitpro/devkitarm/bin/../lib/gcc/arm-eabi/4.6.1/../../../../arm-eabi/lib/thumb\libg.a(lib_a-locale.o)
                0x03003c2c                __default_locale
                0x03003d4c                __mb_cur_max
 .data          0x03003da8        0x0 c:/users/gordon/documents/university/computer_graphics_architecture/dev/devkitpro/devkitarm/bin/../lib/gcc/arm-eabi/4.6.1/../../../../arm-eabi/lib/thumb\libg.a(lib_a-makebuf.o)
 .data          0x03003da8        0x4 c:/users/gordon/documents/university/computer_graphics_architecture/dev/devkitpro/devkitarm/bin/../lib/gcc/arm-eabi/4.6.1/../../../../arm-eabi/lib/thumb\libg.a(lib_a-mbtowc_r.o)
                0x03003da8                __mbtowc
 .data          0x03003dac        0x0 c:/users/gordon/documents/university/computer_graphics_architecture/dev/devkitpro/devkitarm/bin/../lib/gcc/arm-eabi/4.6.1/../../../../arm-eabi/lib/thumb\libg.a(lib_a-mprec.o)
 .data          0x03003dac        0x0 c:/users/gordon/documents/university/computer_graphics_architecture/dev/devkitpro/devkitarm/bin/../lib/gcc/arm-eabi/4.6.1/../../../../arm-eabi/lib/thumb\libg.a(lib_a-s_fpclassify.o)
 .data          0x03003dac        0x0 c:/users/gordon/documents/university/computer_graphics_architecture/dev/devkitpro/devkitarm/bin/../lib/gcc/arm-eabi/4.6.1/../../../../arm-eabi/lib/thumb\libg.a(lib_a-stdio.o)
 .data          0x03003dac        0x0 c:/users/gordon/documents/university/computer_graphics_architecture/dev/devkitpro/devkitarm/bin/../lib/gcc/arm-eabi/4.6.1/../../../../arm-eabi/lib/thumb\libg.a(lib_a-strcasecmp.o)
 .data          0x03003dac        0x0 c:/users/gordon/documents/university/computer_graphics_architecture/dev/devkitpro/devkitarm/bin/../lib/gcc/arm-eabi/4.6.1/../../../../arm-eabi/lib/thumb\libg.a(lib_a-strcat.o)
 .data          0x03003dac        0x0 c:/users/gordon/documents/university/computer_graphics_architecture/dev/devkitpro/devkitarm/bin/../lib/gcc/arm-eabi/4.6.1/../../../../arm-eabi/lib/thumb\libg.a(lib_a-strchr.o)
 .data          0x03003dac        0x0 c:/users/gordon/documents/university/computer_graphics_architecture/dev/devkitpro/devkitarm/bin/../lib/gcc/arm-eabi/4.6.1/../../../../arm-eabi/lib/thumb\libg.a(lib_a-strlcpy.o)
 .data          0x03003dac        0x0 c:/users/gordon/documents/university/computer_graphics_architecture/dev/devkitpro/devkitarm/bin/../lib/gcc/arm-eabi/4.6.1/../../../../arm-eabi/lib/thumb\libg.a(lib_a-strncasecmp.o)
 .data          0x03003dac        0x0 c:/users/gordon/documents/university/computer_graphics_architecture/dev/devkitpro/devkitarm/bin/../lib/gcc/arm-eabi/4.6.1/../../../../arm-eabi/lib/thumb\libg.a(lib_a-strncpy.o)
 .data          0x03003dac        0x0 c:/users/gordon/documents/university/computer_graphics_architecture/dev/devkitpro/devkitarm/bin/../lib/gcc/arm-eabi/4.6.1/../../../../arm-eabi/lib/thumb\libg.a(lib_a-strtol.o)
 .data          0x03003dac        0x0 c:/users/gordon/documents/university/computer_graphics_architecture/dev/devkitpro/devkitarm/bin/../lib/gcc/arm-eabi/4.6.1/../../../../arm-eabi/lib/thumb\libg.a(lib_a-svfiprintf.o)
 .data          0x03003dac        0x0 c:/users/gordon/documents/university/computer_graphics_architecture/dev/devkitpro/devkitarm/bin/../lib/gcc/arm-eabi/4.6.1/../../../../arm-eabi/lib/thumb\libg.a(lib_a-wcsnrtombs.o)
 .data          0x03003dac        0x0 c:/users/gordon/documents/university/computer_graphics_architecture/dev/devkitpro/devkitarm/bin/../lib/gcc/arm-eabi/4.6.1/../../../../arm-eabi/lib/thumb\libg.a(lib_a-callocr.o)
 .data          0x03003dac        0x4 c:/users/gordon/documents/university/computer_graphics_architecture/dev/devkitpro/devkitarm/bin/../lib/gcc/arm-eabi/4.6.1/../../../../arm-eabi/lib/thumb\libg.a(lib_a-ctype_.o)
                0x03003dac                __ctype_ptr__
 .data          0x03003db0        0x0 c:/users/gordon/documents/university/computer_graphics_architecture/dev/devkitpro/devkitarm/bin/../lib/gcc/arm-eabi/4.6.1/../../../../arm-eabi/lib/thumb\libg.a(lib_a-fclose.o)
 .data          0x03003db0        0x0 c:/users/gordon/documents/university/computer_graphics_architecture/dev/devkitpro/devkitarm/bin/../lib/gcc/arm-eabi/4.6.1/../../../../arm-eabi/lib/thumb\libg.a(lib_a-getenv_r.o)
 .data          0x03003db0        0x4 c:/users/gordon/documents/university/computer_graphics_architecture/dev/devkitpro/devkitarm/bin/../lib/gcc/arm-eabi/4.6.1/../../../../arm-eabi/lib/thumb\libg.a(lib_a-environ.o)
                0x03003db0                environ
 .data          0x03003db4        0x0 c:/users/gordon/documents/university/computer_graphics_architecture/dev/devkitpro/devkitarm/bin/../lib/gcc/arm-eabi/4.6.1/../../../../arm-eabi/lib/thumb\libg.a(lib_a-envlock.o)
 .data          0x03003db4        0x0 c:/users/gordon/documents/university/computer_graphics_architecture/dev/devkitpro/devkitarm/bin/../lib/gcc/arm-eabi/4.6.1/../../../../arm-eabi/lib/thumb\libsysbase.a(close.o)
 .data          0x03003db4        0x0 c:/users/gordon/documents/university/computer_graphics_architecture/dev/devkitpro/devkitarm/bin/../lib/gcc/arm-eabi/4.6.1/../../../../arm-eabi/lib/thumb\libsysbase.a(fstat.o)
 .data          0x03003db4        0x0 c:/users/gordon/documents/university/computer_graphics_architecture/dev/devkitpro/devkitarm/bin/../lib/gcc/arm-eabi/4.6.1/../../../../arm-eabi/lib/thumb\libsysbase.a(getpid.o)
 .data          0x03003db4        0x0 c:/users/gordon/documents/university/computer_graphics_architecture/dev/devkitpro/devkitarm/bin/../lib/gcc/arm-eabi/4.6.1/../../../../arm-eabi/lib/thumb\libsysbase.a(isatty.o)
 .data          0x03003db4        0x0 c:/users/gordon/documents/university/computer_graphics_architecture/dev/devkitpro/devkitarm/bin/../lib/gcc/arm-eabi/4.6.1/../../../../arm-eabi/lib/thumb\libsysbase.a(kill.o)
 .data          0x03003db4        0x0 c:/users/gordon/documents/university/computer_graphics_architecture/dev/devkitpro/devkitarm/bin/../lib/gcc/arm-eabi/4.6.1/../../../../arm-eabi/lib/thumb\libsysbase.a(lseek.o)
 .data          0x03003db4        0x0 c:/users/gordon/documents/university/computer_graphics_architecture/dev/devkitpro/devkitarm/bin/../lib/gcc/arm-eabi/4.6.1/../../../../arm-eabi/lib/thumb\libsysbase.a(read.o)
 .data          0x03003db4        0x0 c:/users/gordon/documents/university/computer_graphics_architecture/dev/devkitpro/devkitarm/bin/../lib/gcc/arm-eabi/4.6.1/../../../../arm-eabi/lib/thumb\libsysbase.a(sbrk.o)
 .data          0x03003db4        0x0 c:/users/gordon/documents/university/computer_graphics_architecture/dev/devkitpro/devkitarm/bin/../lib/gcc/arm-eabi/4.6.1/../../../../arm-eabi/lib/thumb\libsysbase.a(write.o)
 .data          0x03003db4        0x0 c:/users/gordon/documents/university/computer_graphics_architecture/dev/devkitpro/devkitarm/bin/../lib/gcc/arm-eabi/4.6.1/../../../../arm-eabi/lib/thumb\libsysbase.a(_exit.o)
 .data          0x03003db4        0x0 c:/users/gordon/documents/university/computer_graphics_architecture/dev/devkitpro/devkitarm/bin/../lib/gcc/arm-eabi/4.6.1/../../../../arm-eabi/lib/thumb\libsysbase.a(malloc_vars.o)
 .data          0x03003db4        0x0 c:/users/gordon/documents/university/computer_graphics_architecture/dev/devkitpro/devkitarm/bin/../lib/gcc/arm-eabi/4.6.1/../../../../arm-eabi/lib/thumb\libsysbase.a(syscall_support.o)
 .data          0x03003db4        0x0 c:/users/gordon/documents/university/computer_graphics_architecture/dev/devkitpro/devkitarm/bin/../lib/gcc/arm-eabi/4.6.1/../../../../arm-eabi/lib/thumb\libsysbase.a(handle_manager.o)
 .data          0x03003db4       0x44 c:/users/gordon/documents/university/computer_graphics_architecture/dev/devkitpro/devkitarm/bin/../lib/gcc/arm-eabi/4.6.1/../../../../arm-eabi/lib/thumb\libsysbase.a(iosupport.o)
                0x03003db8                devoptab_list
 .data          0x03003df8        0x0 c:/users/gordon/documents/university/computer_graphics_architecture/dev/devkitpro/devkitarm/bin/../lib/gcc/arm-eabi/4.6.1/thumb\libgcc.a(_divsi3.o)
 .data          0x03003df8        0x0 c:/users/gordon/documents/university/computer_graphics_architecture/dev/devkitpro/devkitarm/bin/../lib/gcc/arm-eabi/4.6.1/thumb\libgcc.a(_arm_addsubdf3.o)
 .data          0x03003df8        0x0 c:/users/gordon/documents/university/computer_graphics_architecture/dev/devkitpro/devkitarm/bin/../lib/gcc/arm-eabi/4.6.1/thumb\libgcc.a(_arm_muldivdf3.o)
 .data          0x03003df8        0x0 c:/users/gordon/documents/university/computer_graphics_architecture/dev/devkitpro/devkitarm/bin/../lib/gcc/arm-eabi/4.6.1/thumb\libgcc.a(_arm_cmpdf2.o)
 .data          0x03003df8        0x0 c:/users/gordon/documents/university/computer_graphics_architecture/dev/devkitpro/devkitarm/bin/../lib/gcc/arm-eabi/4.6.1/thumb\libgcc.a(_arm_fixdfsi.o)
 .data          0x03003df8        0x0 c:/users/gordon/documents/university/computer_graphics_architecture/dev/devkitpro/devkitarm/bin/../lib/gcc/arm-eabi/4.6.1/thumb\libgcc.a(_aeabi_uldivmod.o)
 .data          0x03003df8        0x0 c:/users/gordon/documents/university/computer_graphics_architecture/dev/devkitpro/devkitarm/bin/../lib/gcc/arm-eabi/4.6.1/thumb\libgcc.a(bpabi.o)
 .data          0x03003df8        0x0 c:/users/gordon/documents/university/computer_graphics_architecture/dev/devkitpro/devkitarm/bin/../lib/gcc/arm-eabi/4.6.1/thumb\libgcc.a(_muldi3.o)
 .data          0x03003df8        0x0 c:/users/gordon/documents/university/computer_graphics_architecture/dev/devkitpro/devkitarm/bin/../lib/gcc/arm-eabi/4.6.1/thumb\libgcc.a(_divdi3.o)
 .data          0x03003df8        0x0 c:/users/gordon/documents/university/computer_graphics_architecture/dev/devkitpro/devkitarm/bin/../lib/gcc/arm-eabi/4.6.1/thumb\libgcc.a(_udivdi3.o)
 .data          0x03003df8        0x0 c:/users/gordon/documents/university/computer_graphics_architecture/dev/devkitpro/devkitarm/bin/../lib/gcc/arm-eabi/4.6.1/thumb\libgcc.a(_clzsi2.o)
 .data          0x03003df8        0x0 c:/users/gordon/documents/university/computer_graphics_architecture/dev/devkitpro/devkitarm/bin/../lib/gcc/arm-eabi/4.6.1/thumb/crtend.o
 .data          0x03003df8        0x0 c:/users/gordon/documents/university/computer_graphics_architecture/dev/devkitpro/devkitarm/bin/../lib/gcc/arm-eabi/4.6.1/thumb/crtn.o
 *(.data.*)
 .data._ZN10__cxxabiv119__terminate_handlerE
                0x03003df8        0x4 c:/users/gordon/documents/university/computer_graphics_architecture/dev/devkitpro/devkitarm/bin/../lib/gcc/arm-eabi/4.6.1/../../../../arm-eabi/lib/thumb\libstdc++.a(eh_term_handler.o)
                0x03003df8                __cxxabiv1::__terminate_handler
 .data._ZN10__cxxabiv120__unexpected_handlerE
                0x03003dfc        0x4 c:/users/gordon/documents/university/computer_graphics_architecture/dev/devkitpro/devkitarm/bin/../lib/gcc/arm-eabi/4.6.1/../../../../arm-eabi/lib/thumb\libstdc++.a(eh_unex_handler.o)
                0x03003dfc                __cxxabiv1::__unexpected_handler
 *(.gnu.linkonce.d*)
                0x03003e00                . = ALIGN (0x4)
                0x08018894                __preinit_lma = (__data_lma + SIZEOF (.data))
                0x03003e00                PROVIDE (__preinit_array_start, .)

.preinit_array  0x03003e00        0x0 load address 0x08018894
 *(.preinit_array)
                0x03003e00                PROVIDE (__preinit_array_end, .)
                0x08018894                __init_lma = (__preinit_lma + SIZEOF (.preinit_array))
                0x03003e00                PROVIDE (__init_array_start, .)

.init_array     0x03003e00        0x8 load address 0x08018894
 *(SORT(.init_array.*))
 *(.init_array)
 .init_array    0x03003e00        0x4 c:/users/gordon/documents/university/computer_graphics_architecture/dev/devkitpro/devkitarm/bin/../lib/gcc/arm-eabi/4.6.1/thumb/crtbegin.o
 .init_array    0x03003e04        0x4 world.o
                0x03003e08                PROVIDE (__init_array_end, .)
                0x03003e08                PROVIDE (__fini_array_start, .)
                0x0801889c                __fini_lma = (__init_lma + SIZEOF (.init_array))

.fini_array     0x03003e08        0x4 load address 0x0801889c
 *(SORT(.fini_array.*))
 *(.fini_array)
 .fini_array    0x03003e08        0x4 c:/users/gordon/documents/university/computer_graphics_architecture/dev/devkitpro/devkitarm/bin/../lib/gcc/arm-eabi/4.6.1/thumb/crtbegin.o
                0x03003e0c                PROVIDE (__fini_array_end, .)
                0x080188a0                __jcr_lma = (__fini_lma + SIZEOF (.fini_array))

.jcr            0x03003e0c        0x4 load address 0x080188a0
 *(.jcr)
 .jcr           0x03003e0c        0x0 c:/users/gordon/documents/university/computer_graphics_architecture/dev/devkitpro/devkitarm/bin/../lib/gcc/arm-eabi/4.6.1/thumb/crtbegin.o
 .jcr           0x03003e0c        0x4 c:/users/gordon/documents/university/computer_graphics_architecture/dev/devkitpro/devkitarm/bin/../lib/gcc/arm-eabi/4.6.1/thumb/crtend.o
                0x03003e10                __data_end__ = ABSOLUTE (.)
                0x080188a4                __iwram_overlay_lma = (__jcr_lma + SIZEOF (.jcr))
                0x03003e10                __iwram_overlay_start = .

.iwram0         0x03003e10        0x0 load address 0x080188a4
 *(.iwram0)
                0x03003e10                . = ALIGN (0x4)
                0x080188a4                PROVIDE (__load_start_iwram0, LOADADDR (.iwram0))
                0x080188a4                PROVIDE (__load_stop_iwram0, (LOADADDR (.iwram0) + SIZEOF (.iwram0)))

.iwram1         0x03003e10        0x0
 *(.iwram1)
                0x03003e10                . = ALIGN (0x4)
                0x03003e10                PROVIDE (__load_start_iwram1, LOADADDR (.iwram1))
                0x03003e10                PROVIDE (__load_stop_iwram1, (LOADADDR (.iwram1) + SIZEOF (.iwram1)))

.iwram2         0x03003e10        0x0
 *(.iwram2)
                0x03003e10                . = ALIGN (0x4)
                0x03003e10                PROVIDE (__load_start_iwram2, LOADADDR (.iwram2))
                0x03003e10                PROVIDE (__load_stop_iwram2, (LOADADDR (.iwram2) + SIZEOF (.iwram2)))

.iwram3         0x03003e10        0x0
 *(.iwram3)
                0x03003e10                . = ALIGN (0x4)
                0x03003e10                PROVIDE (__load_start_iwram3, LOADADDR (.iwram3))
                0x03003e10                PROVIDE (__load_stop_iwram3, (LOADADDR (.iwram3) + SIZEOF (.iwram3)))

.iwram4         0x03003e10        0x0
 *(.iwram4)
                0x03003e10                . = ALIGN (0x4)
                0x03003e10                PROVIDE (__load_start_iwram4, LOADADDR (.iwram4))
                0x03003e10                PROVIDE (__load_stop_iwram4, (LOADADDR (.iwram4) + SIZEOF (.iwram4)))

.iwram5         0x03003e10        0x0
 *(.iwram5)
                0x03003e10                . = ALIGN (0x4)
                0x03003e10                PROVIDE (__load_start_iwram5, LOADADDR (.iwram5))
                0x03003e10                PROVIDE (__load_stop_iwram5, (LOADADDR (.iwram5) + SIZEOF (.iwram5)))

.iwram6         0x03003e10        0x0
 *(.iwram6)
                0x03003e10                . = ALIGN (0x4)
                0x03003e10                PROVIDE (__load_start_iwram6, LOADADDR (.iwram6))
                0x03003e10                PROVIDE (__load_stop_iwram6, (LOADADDR (.iwram6) + SIZEOF (.iwram6)))

.iwram7         0x03003e10        0x0
 *(.iwram7)
                0x03003e10                . = ALIGN (0x4)
                0x03003e10                PROVIDE (__load_start_iwram7, LOADADDR (.iwram7))
                0x03003e10                PROVIDE (__load_stop_iwram7, (LOADADDR (.iwram7) + SIZEOF (.iwram7)))

.iwram8         0x03003e10        0x0
 *(.iwram8)
                0x03003e10                . = ALIGN (0x4)
                0x03003e10                PROVIDE (__load_start_iwram8, LOADADDR (.iwram8))
                0x03003e10                PROVIDE (__load_stop_iwram8, (LOADADDR (.iwram8) + SIZEOF (.iwram8)))

.iwram9         0x03003e10        0x0
 *(.iwram9)
                0x03003e10                . = ALIGN (0x4)
                0x03003e10                PROVIDE (__load_start_iwram9, LOADADDR (.iwram9))
                0x03003e10                PROVIDE (__load_stop_iwram9, (LOADADDR (.iwram9) + SIZEOF (.iwram9)))
                0x03003e10                __iwram_overlay_end = .
                0x080188a4                __ewram_lma = (__iwram_overlay_lma + (__iwram_overlay_end - __iwram_overlay_start))
                0x03003e10                __iheap_start = .
                0x02000000                __ewram_start = ORIGIN (ewram)

.ewram          0x02000000        0x0 load address 0x080188a4
 *(.ewram)
                0x02000000                . = ALIGN (0x4)
                0x080188a4                __pad_lma = (__ewram_lma + SIZEOF (.ewram))

.sbss           0x02000000        0x0
                0x02000000                __sbss_start__ = ABSOLUTE (.)
 *(.sbss)
                0x02000000                . = ALIGN (0x4)
                0x02000000                __sbss_end__ = ABSOLUTE (.)
                0x02000000                __end__ = ABSOLUTE (.)
                0x02000000                __ewram_end = ABSOLUTE (.)
                0x02000000                __eheap_start = ABSOLUTE (.)

.pad            0x02000000        0x8 load address 0x080188a4
                0x02000000        0x4 LONG 0x52416b64
                0x02000004        0x4 LONG 0x4d
                0x02000008                . = ALIGN (0x4)
                0x080188ac                __rom_end__ = (__pad_lma + SIZEOF (.pad))

.stab
 *(.stab)

.stabstr
 *(.stabstr)

.stab.excl
 *(.stab.excl)

.stab.exclstr
 *(.stab.exclstr)

.stab.index
 *(.stab.index)

.stab.indexstr
 *(.stab.indexstr)

.comment        0x00000000       0x22
 *(.comment)
 .comment       0x00000000       0x22 c:/users/gordon/documents/university/computer_graphics_architecture/dev/devkitpro/devkitarm/bin/../lib/gcc/arm-eabi/4.6.1/thumb/crtbegin.o
                                 0x23 (size before relaxing)
 .comment       0x00000000       0x23 tiles.o
 .comment       0x00000000       0x23 font.o
 .comment       0x00000000       0x23 gba.o
 .comment       0x00000000       0x23 main.o
 .comment       0x00000000       0x23 player.o
 .comment       0x00000000       0x23 util.o
 .comment       0x00000000       0x23 world.o
 .comment       0x00000000       0x23 c:/users/gordon/documents/university/computer_graphics_architecture/dev/devkitpro/devkitarm/bin/../lib/gcc/arm-eabi/4.6.1/../../../../arm-eabi/lib/thumb\libstdc++.a(new_op.o)
 .comment       0x00000000       0x23 c:/users/gordon/documents/university/computer_graphics_architecture/dev/devkitpro/devkitarm/bin/../lib/gcc/arm-eabi/4.6.1/../../../../arm-eabi/lib/thumb\libstdc++.a(bad_alloc.o)
 .comment       0x00000000       0x23 c:/users/gordon/documents/university/computer_graphics_architecture/dev/devkitpro/devkitarm/bin/../lib/gcc/arm-eabi/4.6.1/../../../../arm-eabi/lib/thumb\libstdc++.a(del_op.o)
 .comment       0x00000000       0x23 c:/users/gordon/documents/university/computer_graphics_architecture/dev/devkitpro/devkitarm/bin/../lib/gcc/arm-eabi/4.6.1/../../../../arm-eabi/lib/thumb\libstdc++.a(eh_alloc.o)
 .comment       0x00000000       0x23 c:/users/gordon/documents/university/computer_graphics_architecture/dev/devkitpro/devkitarm/bin/../lib/gcc/arm-eabi/4.6.1/../../../../arm-eabi/lib/thumb\libstdc++.a(eh_arm.o)
 .comment       0x00000000       0x23 c:/users/gordon/documents/university/computer_graphics_architecture/dev/devkitpro/devkitarm/bin/../lib/gcc/arm-eabi/4.6.1/../../../../arm-eabi/lib/thumb\libstdc++.a(eh_aux_runtime.o)
 .comment       0x00000000       0x23 c:/users/gordon/documents/university/computer_graphics_architecture/dev/devkitpro/devkitarm/bin/../lib/gcc/arm-eabi/4.6.1/../../../../arm-eabi/lib/thumb\libstdc++.a(eh_call.o)
 .comment       0x00000000       0x23 c:/users/gordon/documents/university/computer_graphics_architecture/dev/devkitpro/devkitarm/bin/../lib/gcc/arm-eabi/4.6.1/../../../../arm-eabi/lib/thumb\libstdc++.a(eh_catch.o)
 .comment       0x00000000       0x23 c:/users/gordon/documents/university/computer_graphics_architecture/dev/devkitpro/devkitarm/bin/../lib/gcc/arm-eabi/4.6.1/../../../../arm-eabi/lib/thumb\libstdc++.a(eh_exception.o)
 .comment       0x00000000       0x23 c:/users/gordon/documents/university/computer_graphics_architecture/dev/devkitpro/devkitarm/bin/../lib/gcc/arm-eabi/4.6.1/../../../../arm-eabi/lib/thumb\libstdc++.a(eh_globals.o)
 .comment       0x00000000       0x23 c:/users/gordon/documents/university/computer_graphics_architecture/dev/devkitpro/devkitarm/bin/../lib/gcc/arm-eabi/4.6.1/../../../../arm-eabi/lib/thumb\libstdc++.a(eh_personality.o)
 .comment       0x00000000       0x23 c:/users/gordon/documents/university/computer_graphics_architecture/dev/devkitpro/devkitarm/bin/../lib/gcc/arm-eabi/4.6.1/../../../../arm-eabi/lib/thumb\libstdc++.a(eh_terminate.o)
 .comment       0x00000000       0x23 c:/users/gordon/documents/university/computer_graphics_architecture/dev/devkitpro/devkitarm/bin/../lib/gcc/arm-eabi/4.6.1/../../../../arm-eabi/lib/thumb\libstdc++.a(eh_term_handler.o)
 .comment       0x00000000       0x23 c:/users/gordon/documents/university/computer_graphics_architecture/dev/devkitpro/devkitarm/bin/../lib/gcc/arm-eabi/4.6.1/../../../../arm-eabi/lib/thumb\libstdc++.a(eh_throw.o)
 .comment       0x00000000       0x23 c:/users/gordon/documents/university/computer_graphics_architecture/dev/devkitpro/devkitarm/bin/../lib/gcc/arm-eabi/4.6.1/../../../../arm-eabi/lib/thumb\libstdc++.a(eh_unex_handler.o)
 .comment       0x00000000       0x23 c:/users/gordon/documents/university/computer_graphics_architecture/dev/devkitpro/devkitarm/bin/../lib/gcc/arm-eabi/4.6.1/../../../../arm-eabi/lib/thumb\libstdc++.a(fundamental_type_info.o)
 .comment       0x00000000       0x23 c:/users/gordon/documents/university/computer_graphics_architecture/dev/devkitpro/devkitarm/bin/../lib/gcc/arm-eabi/4.6.1/../../../../arm-eabi/lib/thumb\libstdc++.a(new_handler.o)
 .comment       0x00000000       0x23 c:/users/gordon/documents/university/computer_graphics_architecture/dev/devkitpro/devkitarm/bin/../lib/gcc/arm-eabi/4.6.1/../../../../arm-eabi/lib/thumb\libstdc++.a(pointer_type_info.o)
 .comment       0x00000000       0x23 c:/users/gordon/documents/university/computer_graphics_architecture/dev/devkitpro/devkitarm/bin/../lib/gcc/arm-eabi/4.6.1/../../../../arm-eabi/lib/thumb\libstdc++.a(pure.o)
 .comment       0x00000000       0x23 c:/users/gordon/documents/university/computer_graphics_architecture/dev/devkitpro/devkitarm/bin/../lib/gcc/arm-eabi/4.6.1/../../../../arm-eabi/lib/thumb\libstdc++.a(si_class_type_info.o)
 .comment       0x00000000       0x23 c:/users/gordon/documents/university/computer_graphics_architecture/dev/devkitpro/devkitarm/bin/../lib/gcc/arm-eabi/4.6.1/../../../../arm-eabi/lib/thumb\libstdc++.a(tinfo.o)
 .comment       0x00000000       0x23 c:/users/gordon/documents/university/computer_graphics_architecture/dev/devkitpro/devkitarm/bin/../lib/gcc/arm-eabi/4.6.1/../../../../arm-eabi/lib/thumb\libstdc++.a(vterminate.o)
 .comment       0x00000000       0x23 c:/users/gordon/documents/university/computer_graphics_architecture/dev/devkitpro/devkitarm/bin/../lib/gcc/arm-eabi/4.6.1/../../../../arm-eabi/lib/thumb\libstdc++.a(bad_cast.o)
 .comment       0x00000000       0x23 c:/users/gordon/documents/university/computer_graphics_architecture/dev/devkitpro/devkitarm/bin/../lib/gcc/arm-eabi/4.6.1/../../../../arm-eabi/lib/thumb\libstdc++.a(bad_typeid.o)
 .comment       0x00000000       0x23 c:/users/gordon/documents/university/computer_graphics_architecture/dev/devkitpro/devkitarm/bin/../lib/gcc/arm-eabi/4.6.1/../../../../arm-eabi/lib/thumb\libstdc++.a(class_type_info.o)
 .comment       0x00000000       0x23 c:/users/gordon/documents/university/computer_graphics_architecture/dev/devkitpro/devkitarm/bin/../lib/gcc/arm-eabi/4.6.1/../../../../arm-eabi/lib/thumb\libstdc++.a(cp-demangle.o)
 .comment       0x00000000       0x23 c:/users/gordon/documents/university/computer_graphics_architecture/dev/devkitpro/devkitarm/bin/../lib/gcc/arm-eabi/4.6.1/../../../../arm-eabi/lib/thumb\libstdc++.a(eh_type.o)
 .comment       0x00000000       0x23 c:/users/gordon/documents/university/computer_graphics_architecture/dev/devkitpro/devkitarm/bin/../lib/gcc/arm-eabi/4.6.1/../../../../arm-eabi/lib/thumb\libstdc++.a(pbase_type_info.o)
 .comment       0x00000000       0x23 c:/users/gordon/documents/university/computer_graphics_architecture/dev/devkitpro/devkitarm/bin/../lib/gcc/arm-eabi/4.6.1/thumb\libgcc.a(unwind-arm.o)
 .comment       0x00000000       0x23 c:/users/gordon/documents/university/computer_graphics_architecture/dev/devkitpro/devkitarm/bin/../lib/gcc/arm-eabi/4.6.1/thumb\libgcc.a(pr-support.o)
 .comment       0x00000000       0x23 c:/users/gordon/documents/university/computer_graphics_architecture/dev/devkitpro/devkitarm/bin/../lib/gcc/arm-eabi/4.6.1/../../../../arm-eabi/lib/thumb\libg.a(lib_a-abort.o)
 .comment       0x00000000       0x23 c:/users/gordon/documents/university/computer_graphics_architecture/dev/devkitpro/devkitarm/bin/../lib/gcc/arm-eabi/4.6.1/../../../../arm-eabi/lib/thumb\libg.a(lib_a-fputc.o)
 .comment       0x00000000       0x23 c:/users/gordon/documents/university/computer_graphics_architecture/dev/devkitpro/devkitarm/bin/../lib/gcc/arm-eabi/4.6.1/../../../../arm-eabi/lib/thumb\libg.a(lib_a-fputs.o)
 .comment       0x00000000       0x23 c:/users/gordon/documents/university/computer_graphics_architecture/dev/devkitpro/devkitarm/bin/../lib/gcc/arm-eabi/4.6.1/../../../../arm-eabi/lib/thumb\libg.a(lib_a-fvwrite.o)
 .comment       0x00000000       0x23 c:/users/gordon/documents/university/computer_graphics_architecture/dev/devkitpro/devkitarm/bin/../lib/gcc/arm-eabi/4.6.1/../../../../arm-eabi/lib/thumb\libg.a(lib_a-fwrite.o)
 .comment       0x00000000       0x23 c:/users/gordon/documents/university/computer_graphics_architecture/dev/devkitpro/devkitarm/bin/../lib/gcc/arm-eabi/4.6.1/../../../../arm-eabi/lib/thumb\libg.a(lib_a-impure.o)
 .comment       0x00000000       0x23 c:/users/gordon/documents/university/computer_graphics_architecture/dev/devkitpro/devkitarm/bin/../lib/gcc/arm-eabi/4.6.1/../../../../arm-eabi/lib/thumb\libg.a(lib_a-init.o)
 .comment       0x00000000       0x23 c:/users/gordon/documents/university/computer_graphics_architecture/dev/devkitpro/devkitarm/bin/../lib/gcc/arm-eabi/4.6.1/../../../../arm-eabi/lib/thumb\libg.a(lib_a-malloc.o)
 .comment       0x00000000       0x23 c:/users/gordon/documents/university/computer_graphics_architecture/dev/devkitpro/devkitarm/bin/../lib/gcc/arm-eabi/4.6.1/../../../../arm-eabi/lib/thumb\libg.a(lib_a-mallocr.o)
 .comment       0x00000000       0x23 c:/users/gordon/documents/university/computer_graphics_architecture/dev/devkitpro/devkitarm/bin/../lib/gcc/arm-eabi/4.6.1/../../../../arm-eabi/lib/thumb\libg.a(lib_a-memchr.o)
 .comment       0x00000000       0x23 c:/users/gordon/documents/university/computer_graphics_architecture/dev/devkitpro/devkitarm/bin/../lib/gcc/arm-eabi/4.6.1/../../../../arm-eabi/lib/thumb\libg.a(lib_a-memcmp.o)
 .comment       0x00000000       0x23 c:/users/gordon/documents/university/computer_graphics_architecture/dev/devkitpro/devkitarm/bin/../lib/gcc/arm-eabi/4.6.1/../../../../arm-eabi/lib/thumb\libg.a(lib_a-memcpy.o)
 .comment       0x00000000       0x23 c:/users/gordon/documents/university/computer_graphics_architecture/dev/devkitpro/devkitarm/bin/../lib/gcc/arm-eabi/4.6.1/../../../../arm-eabi/lib/thumb\libg.a(lib_a-memmove.o)
 .comment       0x00000000       0x23 c:/users/gordon/documents/university/computer_graphics_architecture/dev/devkitpro/devkitarm/bin/../lib/gcc/arm-eabi/4.6.1/../../../../arm-eabi/lib/thumb\libg.a(lib_a-memset.o)
 .comment       0x00000000       0x23 c:/users/gordon/documents/university/computer_graphics_architecture/dev/devkitpro/devkitarm/bin/../lib/gcc/arm-eabi/4.6.1/../../../../arm-eabi/lib/thumb\libg.a(lib_a-mlock.o)
 .comment       0x00000000       0x23 c:/users/gordon/documents/university/computer_graphics_architecture/dev/devkitpro/devkitarm/bin/../lib/gcc/arm-eabi/4.6.1/../../../../arm-eabi/lib/thumb\libg.a(lib_a-putc.o)
 .comment       0x00000000       0x23 c:/users/gordon/documents/university/computer_graphics_architecture/dev/devkitpro/devkitarm/bin/../lib/gcc/arm-eabi/4.6.1/../../../../arm-eabi/lib/thumb\libg.a(lib_a-realloc.o)
 .comment       0x00000000       0x23 c:/users/gordon/documents/university/computer_graphics_architecture/dev/devkitpro/devkitarm/bin/../lib/gcc/arm-eabi/4.6.1/../../../../arm-eabi/lib/thumb\libg.a(lib_a-reallocr.o)
 .comment       0x00000000       0x23 c:/users/gordon/documents/university/computer_graphics_architecture/dev/devkitpro/devkitarm/bin/../lib/gcc/arm-eabi/4.6.1/../../../../arm-eabi/lib/thumb\libg.a(lib_a-signal.o)
 .comment       0x00000000       0x23 c:/users/gordon/documents/university/computer_graphics_architecture/dev/devkitpro/devkitarm/bin/../lib/gcc/arm-eabi/4.6.1/../../../../arm-eabi/lib/thumb\libg.a(lib_a-sprintf.o)
 .comment       0x00000000       0x23 c:/users/gordon/documents/university/computer_graphics_architecture/dev/devkitpro/devkitarm/bin/../lib/gcc/arm-eabi/4.6.1/../../../../arm-eabi/lib/thumb\libg.a(lib_a-strcmp.o)
 .comment       0x00000000       0x23 c:/users/gordon/documents/university/computer_graphics_architecture/dev/devkitpro/devkitarm/bin/../lib/gcc/arm-eabi/4.6.1/../../../../arm-eabi/lib/thumb\libg.a(lib_a-strcpy.o)
 .comment       0x00000000       0x23 c:/users/gordon/documents/university/computer_graphics_architecture/dev/devkitpro/devkitarm/bin/../lib/gcc/arm-eabi/4.6.1/../../../../arm-eabi/lib/thumb\libg.a(lib_a-strlen.o)
 .comment       0x00000000       0x23 c:/users/gordon/documents/university/computer_graphics_architecture/dev/devkitpro/devkitarm/bin/../lib/gcc/arm-eabi/4.6.1/../../../../arm-eabi/lib/thumb\libg.a(lib_a-strncmp.o)
 .comment       0x00000000       0x23 c:/users/gordon/documents/university/computer_graphics_architecture/dev/devkitpro/devkitarm/bin/../lib/gcc/arm-eabi/4.6.1/../../../../arm-eabi/lib/thumb\libg.a(lib_a-svfprintf.o)
 .comment       0x00000000       0x23 c:/users/gordon/documents/university/computer_graphics_architecture/dev/devkitpro/devkitarm/bin/../lib/gcc/arm-eabi/4.6.1/../../../../arm-eabi/lib/thumb\libg.a(lib_a-syswrite.o)
 .comment       0x00000000       0x23 c:/users/gordon/documents/university/computer_graphics_architecture/dev/devkitpro/devkitarm/bin/../lib/gcc/arm-eabi/4.6.1/../../../../arm-eabi/lib/thumb\libg.a(lib_a-wbuf.o)
 .comment       0x00000000       0x23 c:/users/gordon/documents/university/computer_graphics_architecture/dev/devkitpro/devkitarm/bin/../lib/gcc/arm-eabi/4.6.1/../../../../arm-eabi/lib/thumb\libg.a(lib_a-wcrtomb.o)
 .comment       0x00000000       0x23 c:/users/gordon/documents/university/computer_graphics_architecture/dev/devkitpro/devkitarm/bin/../lib/gcc/arm-eabi/4.6.1/../../../../arm-eabi/lib/thumb\libg.a(lib_a-wcsrtombs.o)
 .comment       0x00000000       0x23 c:/users/gordon/documents/university/computer_graphics_architecture/dev/devkitpro/devkitarm/bin/../lib/gcc/arm-eabi/4.6.1/../../../../arm-eabi/lib/thumb\libg.a(lib_a-wctomb_r.o)
 .comment       0x00000000       0x23 c:/users/gordon/documents/university/computer_graphics_architecture/dev/devkitpro/devkitarm/bin/../lib/gcc/arm-eabi/4.6.1/../../../../arm-eabi/lib/thumb\libg.a(lib_a-wsetup.o)
 .comment       0x00000000       0x23 c:/users/gordon/documents/university/computer_graphics_architecture/dev/devkitpro/devkitarm/bin/../lib/gcc/arm-eabi/4.6.1/../../../../arm-eabi/lib/thumb\libg.a(lib_a-dtoa.o)
 .comment       0x00000000       0x23 c:/users/gordon/documents/university/computer_graphics_architecture/dev/devkitpro/devkitarm/bin/../lib/gcc/arm-eabi/4.6.1/../../../../arm-eabi/lib/thumb\libg.a(lib_a-fflush.o)
 .comment       0x00000000       0x23 c:/users/gordon/documents/university/computer_graphics_architecture/dev/devkitpro/devkitarm/bin/../lib/gcc/arm-eabi/4.6.1/../../../../arm-eabi/lib/thumb\libg.a(lib_a-findfp.o)
 .comment       0x00000000       0x23 c:/users/gordon/documents/university/computer_graphics_architecture/dev/devkitpro/devkitarm/bin/../lib/gcc/arm-eabi/4.6.1/../../../../arm-eabi/lib/thumb\libg.a(lib_a-freer.o)
 .comment       0x00000000       0x23 c:/users/gordon/documents/university/computer_graphics_architecture/dev/devkitpro/devkitarm/bin/../lib/gcc/arm-eabi/4.6.1/../../../../arm-eabi/lib/thumb\libg.a(lib_a-fwalk.o)
 .comment       0x00000000       0x23 c:/users/gordon/documents/university/computer_graphics_architecture/dev/devkitpro/devkitarm/bin/../lib/gcc/arm-eabi/4.6.1/../../../../arm-eabi/lib/thumb\libg.a(lib_a-locale.o)
 .comment       0x00000000       0x23 c:/users/gordon/documents/university/computer_graphics_architecture/dev/devkitpro/devkitarm/bin/../lib/gcc/arm-eabi/4.6.1/../../../../arm-eabi/lib/thumb\libg.a(lib_a-makebuf.o)
 .comment       0x00000000       0x23 c:/users/gordon/documents/university/computer_graphics_architecture/dev/devkitpro/devkitarm/bin/../lib/gcc/arm-eabi/4.6.1/../../../../arm-eabi/lib/thumb\libg.a(lib_a-mbtowc_r.o)
 .comment       0x00000000       0x23 c:/users/gordon/documents/university/computer_graphics_architecture/dev/devkitpro/devkitarm/bin/../lib/gcc/arm-eabi/4.6.1/../../../../arm-eabi/lib/thumb\libg.a(lib_a-mprec.o)
 .comment       0x00000000       0x23 c:/users/gordon/documents/university/computer_graphics_architecture/dev/devkitpro/devkitarm/bin/../lib/gcc/arm-eabi/4.6.1/../../../../arm-eabi/lib/thumb\libg.a(lib_a-s_fpclassify.o)
 .comment       0x00000000       0x23 c:/users/gordon/documents/university/computer_graphics_architecture/dev/devkitpro/devkitarm/bin/../lib/gcc/arm-eabi/4.6.1/../../../../arm-eabi/lib/thumb\libg.a(lib_a-stdio.o)
 .comment       0x00000000       0x23 c:/users/gordon/documents/university/computer_graphics_architecture/dev/devkitpro/devkitarm/bin/../lib/gcc/arm-eabi/4.6.1/../../../../arm-eabi/lib/thumb\libg.a(lib_a-strcasecmp.o)
 .comment       0x00000000       0x23 c:/users/gordon/documents/university/computer_graphics_architecture/dev/devkitpro/devkitarm/bin/../lib/gcc/arm-eabi/4.6.1/../../../../arm-eabi/lib/thumb\libg.a(lib_a-strcat.o)
 .comment       0x00000000       0x23 c:/users/gordon/documents/university/computer_graphics_architecture/dev/devkitpro/devkitarm/bin/../lib/gcc/arm-eabi/4.6.1/../../../../arm-eabi/lib/thumb\libg.a(lib_a-strchr.o)
 .comment       0x00000000       0x23 c:/users/gordon/documents/university/computer_graphics_architecture/dev/devkitpro/devkitarm/bin/../lib/gcc/arm-eabi/4.6.1/../../../../arm-eabi/lib/thumb\libg.a(lib_a-strlcpy.o)
 .comment       0x00000000       0x23 c:/users/gordon/documents/university/computer_graphics_architecture/dev/devkitpro/devkitarm/bin/../lib/gcc/arm-eabi/4.6.1/../../../../arm-eabi/lib/thumb\libg.a(lib_a-strncasecmp.o)
 .comment       0x00000000       0x23 c:/users/gordon/documents/university/computer_graphics_architecture/dev/devkitpro/devkitarm/bin/../lib/gcc/arm-eabi/4.6.1/../../../../arm-eabi/lib/thumb\libg.a(lib_a-strncpy.o)
 .comment       0x00000000       0x23 c:/users/gordon/documents/university/computer_graphics_architecture/dev/devkitpro/devkitarm/bin/../lib/gcc/arm-eabi/4.6.1/../../../../arm-eabi/lib/thumb\libg.a(lib_a-strtol.o)
 .comment       0x00000000       0x23 c:/users/gordon/documents/university/computer_graphics_architecture/dev/devkitpro/devkitarm/bin/../lib/gcc/arm-eabi/4.6.1/../../../../arm-eabi/lib/thumb\libg.a(lib_a-svfiprintf.o)
 .comment       0x00000000       0x23 c:/users/gordon/documents/university/computer_graphics_architecture/dev/devkitpro/devkitarm/bin/../lib/gcc/arm-eabi/4.6.1/../../../../arm-eabi/lib/thumb\libg.a(lib_a-wcsnrtombs.o)
 .comment       0x00000000       0x23 c:/users/gordon/documents/university/computer_graphics_architecture/dev/devkitpro/devkitarm/bin/../lib/gcc/arm-eabi/4.6.1/../../../../arm-eabi/lib/thumb\libg.a(lib_a-callocr.o)
 .comment       0x00000000       0x23 c:/users/gordon/documents/university/computer_graphics_architecture/dev/devkitpro/devkitarm/bin/../lib/gcc/arm-eabi/4.6.1/../../../../arm-eabi/lib/thumb\libg.a(lib_a-ctype_.o)
 .comment       0x00000000       0x23 c:/users/gordon/documents/university/computer_graphics_architecture/dev/devkitpro/devkitarm/bin/../lib/gcc/arm-eabi/4.6.1/../../../../arm-eabi/lib/thumb\libg.a(lib_a-fclose.o)
 .comment       0x00000000       0x23 c:/users/gordon/documents/university/computer_graphics_architecture/dev/devkitpro/devkitarm/bin/../lib/gcc/arm-eabi/4.6.1/../../../../arm-eabi/lib/thumb\libg.a(lib_a-getenv_r.o)
 .comment       0x00000000       0x23 c:/users/gordon/documents/university/computer_graphics_architecture/dev/devkitpro/devkitarm/bin/../lib/gcc/arm-eabi/4.6.1/../../../../arm-eabi/lib/thumb\libg.a(lib_a-environ.o)
 .comment       0x00000000       0x23 c:/users/gordon/documents/university/computer_graphics_architecture/dev/devkitpro/devkitarm/bin/../lib/gcc/arm-eabi/4.6.1/../../../../arm-eabi/lib/thumb\libg.a(lib_a-envlock.o)
 .comment       0x00000000       0x23 c:/users/gordon/documents/university/computer_graphics_architecture/dev/devkitpro/devkitarm/bin/../lib/gcc/arm-eabi/4.6.1/../../../../arm-eabi/lib/thumb\libsysbase.a(close.o)
 .comment       0x00000000       0x23 c:/users/gordon/documents/university/computer_graphics_architecture/dev/devkitpro/devkitarm/bin/../lib/gcc/arm-eabi/4.6.1/../../../../arm-eabi/lib/thumb\libsysbase.a(fstat.o)
 .comment       0x00000000       0x23 c:/users/gordon/documents/university/computer_graphics_architecture/dev/devkitpro/devkitarm/bin/../lib/gcc/arm-eabi/4.6.1/../../../../arm-eabi/lib/thumb\libsysbase.a(getpid.o)
 .comment       0x00000000       0x23 c:/users/gordon/documents/university/computer_graphics_architecture/dev/devkitpro/devkitarm/bin/../lib/gcc/arm-eabi/4.6.1/../../../../arm-eabi/lib/thumb\libsysbase.a(isatty.o)
 .comment       0x00000000       0x23 c:/users/gordon/documents/university/computer_graphics_architecture/dev/devkitpro/devkitarm/bin/../lib/gcc/arm-eabi/4.6.1/../../../../arm-eabi/lib/thumb\libsysbase.a(kill.o)
 .comment       0x00000000       0x23 c:/users/gordon/documents/university/computer_graphics_architecture/dev/devkitpro/devkitarm/bin/../lib/gcc/arm-eabi/4.6.1/../../../../arm-eabi/lib/thumb\libsysbase.a(lseek.o)
 .comment       0x00000000       0x23 c:/users/gordon/documents/university/computer_graphics_architecture/dev/devkitpro/devkitarm/bin/../lib/gcc/arm-eabi/4.6.1/../../../../arm-eabi/lib/thumb\libsysbase.a(read.o)
 .comment       0x00000000       0x23 c:/users/gordon/documents/university/computer_graphics_architecture/dev/devkitpro/devkitarm/bin/../lib/gcc/arm-eabi/4.6.1/../../../../arm-eabi/lib/thumb\libsysbase.a(sbrk.o)
 .comment       0x00000000       0x23 c:/users/gordon/documents/university/computer_graphics_architecture/dev/devkitpro/devkitarm/bin/../lib/gcc/arm-eabi/4.6.1/../../../../arm-eabi/lib/thumb\libsysbase.a(write.o)
 .comment       0x00000000       0x23 c:/users/gordon/documents/university/computer_graphics_architecture/dev/devkitpro/devkitarm/bin/../lib/gcc/arm-eabi/4.6.1/../../../../arm-eabi/lib/thumb\libsysbase.a(_exit.o)
 .comment       0x00000000       0x23 c:/users/gordon/documents/university/computer_graphics_architecture/dev/devkitpro/devkitarm/bin/../lib/gcc/arm-eabi/4.6.1/../../../../arm-eabi/lib/thumb\libsysbase.a(malloc_vars.o)
 .comment       0x00000000       0x23 c:/users/gordon/documents/university/computer_graphics_architecture/dev/devkitpro/devkitarm/bin/../lib/gcc/arm-eabi/4.6.1/../../../../arm-eabi/lib/thumb\libsysbase.a(syscall_support.o)
 .comment       0x00000000       0x23 c:/users/gordon/documents/university/computer_graphics_architecture/dev/devkitpro/devkitarm/bin/../lib/gcc/arm-eabi/4.6.1/../../../../arm-eabi/lib/thumb\libsysbase.a(handle_manager.o)
 .comment       0x00000000       0x23 c:/users/gordon/documents/university/computer_graphics_architecture/dev/devkitpro/devkitarm/bin/../lib/gcc/arm-eabi/4.6.1/../../../../arm-eabi/lib/thumb\libsysbase.a(iosupport.o)
 .comment       0x00000000       0x23 c:/users/gordon/documents/university/computer_graphics_architecture/dev/devkitpro/devkitarm/bin/../lib/gcc/arm-eabi/4.6.1/thumb\libgcc.a(bpabi.o)
 .comment       0x00000000       0x23 c:/users/gordon/documents/university/computer_graphics_architecture/dev/devkitpro/devkitarm/bin/../lib/gcc/arm-eabi/4.6.1/thumb\libgcc.a(_muldi3.o)
 .comment       0x00000000       0x23 c:/users/gordon/documents/university/computer_graphics_architecture/dev/devkitpro/devkitarm/bin/../lib/gcc/arm-eabi/4.6.1/thumb\libgcc.a(_divdi3.o)
 .comment       0x00000000       0x23 c:/users/gordon/documents/university/computer_graphics_architecture/dev/devkitpro/devkitarm/bin/../lib/gcc/arm-eabi/4.6.1/thumb\libgcc.a(_udivdi3.o)
 .comment       0x00000000       0x23 c:/users/gordon/documents/university/computer_graphics_architecture/dev/devkitpro/devkitarm/bin/../lib/gcc/arm-eabi/4.6.1/thumb/crtend.o

.debug
 *(.debug)

.line
 *(.line)

.debug_srcinfo
 *(.debug_srcinfo)

.debug_sfnames
 *(.debug_sfnames)

.debug_aranges  0x00000000       0xb0
 *(.debug_aranges)
 .debug_aranges
                0x00000000       0x20 gba.o
 .debug_aranges
                0x00000020       0x28 main.o
 .debug_aranges
                0x00000048       0x20 player.o
 .debug_aranges
                0x00000068       0x20 util.o
 .debug_aranges
                0x00000088       0x28 world.o

.debug_pubnames
 *(.debug_pubnames)

.debug_info     0x00000000     0x3482
 *(.debug_info)
 .debug_info    0x00000000      0x104 tiles.o
 .debug_info    0x00000104       0x9f font.o
 .debug_info    0x000001a3      0x413 gba.o
 .debug_info    0x000005b6     0x201c main.o
 .debug_info    0x000025d2      0x6f5 player.o
 .debug_info    0x00002cc7      0x11c util.o
 .debug_info    0x00002de3      0x69f world.o

.debug_abbrev   0x00000000      0xc91
 *(.debug_abbrev)
 .debug_abbrev  0x00000000       0x52 tiles.o
 .debug_abbrev  0x00000052       0x63 font.o
 .debug_abbrev  0x000000b5      0x1e2 gba.o
 .debug_abbrev  0x00000297      0x45e main.o
 .debug_abbrev  0x000006f5      0x256 player.o
 .debug_abbrev  0x0000094b       0xbe util.o
 .debug_abbrev  0x00000a09      0x288 world.o

.debug_line     0x00000000      0xf8f
 *(.debug_line)
 .debug_line    0x00000000       0x58 tiles.o
 .debug_line    0x00000058       0x4b font.o
 .debug_line    0x000000a3      0x1a3 gba.o
 .debug_line    0x00000246      0x7fa main.o
 .debug_line    0x00000a40      0x23c player.o
 .debug_line    0x00000c7c      0x138 util.o
 .debug_line    0x00000db4      0x1db world.o

.debug_frame    0x00000000      0x2d0
 *(.debug_frame)
 .debug_frame   0x00000000       0xd0 gba.o
 .debug_frame   0x000000d0       0x88 main.o
 .debug_frame   0x00000158       0xd0 player.o
 .debug_frame   0x00000228       0x20 util.o
 .debug_frame   0x00000248       0x88 world.o

.debug_str      0x00000000      0xf55
 *(.debug_str)
 .debug_str     0x00000000       0xd7 tiles.o
                                 0xf0 (size before relaxing)
 .debug_str     0x000000d7       0x41 font.o
                                 0xb8 (size before relaxing)
 .debug_str     0x00000118      0x16e gba.o
                                0x1f1 (size before relaxing)
 .debug_str     0x00000286      0xb64 main.o
                                0xd8e (size before relaxing)
 .debug_str     0x00000dea       0x54 player.o
                                0x29d (size before relaxing)
 .debug_str     0x00000e3e       0x48 util.o
                                 0xfc (size before relaxing)
 .debug_str     0x00000e86       0xcf world.o
                                0x2e8 (size before relaxing)

.debug_loc      0x00000000      0xafb
 *(.debug_loc)
 .debug_loc     0x00000000      0x31a gba.o
 .debug_loc     0x0000031a      0x18f main.o
 .debug_loc     0x000004a9      0x356 player.o
 .debug_loc     0x000007ff       0x13 util.o
 .debug_loc     0x00000812      0x2e9 world.o

.debug_macinfo
 *(.debug_macinfo)

.debug_weaknames
 *(.debug_weaknames)

.debug_funcnames
 *(.debug_funcnames)

.debug_typenames
 *(.debug_typenames)

.debug_varnames
 *(.debug_varnames)

.stack          0x00080000        0x0
                0x00080000                _stack = .
 *(.stack)

.note.gnu.arm.ident
 *(.note.gnu.arm.ident)

.ARM.attributes
                0x00000000       0x2d
 *(.ARM.attributes)
 .ARM.attributes
                0x00000000       0x18 c:/users/gordon/documents/university/computer_graphics_architecture/dev/devkitpro/devkitarm/bin/../lib/gcc/arm-eabi/4.6.1/../../../../arm-eabi/lib/thumb/gba_crt0.o
 .ARM.attributes
                0x00000018       0x18 c:/users/gordon/documents/university/computer_graphics_architecture/dev/devkitpro/devkitarm/bin/../lib/gcc/arm-eabi/4.6.1/thumb/crti.o
 .ARM.attributes
                0x00000030       0x32 c:/users/gordon/documents/university/computer_graphics_architecture/dev/devkitpro/devkitarm/bin/../lib/gcc/arm-eabi/4.6.1/thumb/crtbegin.o
 .ARM.attributes
                0x00000062       0x2e tiles.o
 .ARM.attributes
                0x00000090       0x2e font.o
 .ARM.attributes
                0x000000be       0x2e gba.o
 .ARM.attributes
                0x000000ec       0x2e main.o
 .ARM.attributes
                0x0000011a       0x2e player.o
 .ARM.attributes
                0x00000148       0x2e util.o
 .ARM.attributes
                0x00000176       0x2e world.o
 .ARM.attributes
                0x000001a4       0x32 c:/users/gordon/documents/university/computer_graphics_architecture/dev/devkitpro/devkitarm/bin/../lib/gcc/arm-eabi/4.6.1/../../../../arm-eabi/lib/thumb\libstdc++.a(new_op.o)
 .ARM.attributes
                0x000001d6       0x32 c:/users/gordon/documents/university/computer_graphics_architecture/dev/devkitpro/devkitarm/bin/../lib/gcc/arm-eabi/4.6.1/../../../../arm-eabi/lib/thumb\libstdc++.a(bad_alloc.o)
 .ARM.attributes
                0x00000208       0x32 c:/users/gordon/documents/university/computer_graphics_architecture/dev/devkitpro/devkitarm/bin/../lib/gcc/arm-eabi/4.6.1/../../../../arm-eabi/lib/thumb\libstdc++.a(del_op.o)
 .ARM.attributes
                0x0000023a       0x32 c:/users/gordon/documents/university/computer_graphics_architecture/dev/devkitpro/devkitarm/bin/../lib/gcc/arm-eabi/4.6.1/../../../../arm-eabi/lib/thumb\libstdc++.a(eh_alloc.o)
 .ARM.attributes
                0x0000026c       0x32 c:/users/gordon/documents/university/computer_graphics_architecture/dev/devkitpro/devkitarm/bin/../lib/gcc/arm-eabi/4.6.1/../../../../arm-eabi/lib/thumb\libstdc++.a(eh_arm.o)
 .ARM.attributes
                0x0000029e       0x32 c:/users/gordon/documents/university/computer_graphics_architecture/dev/devkitpro/devkitarm/bin/../lib/gcc/arm-eabi/4.6.1/../../../../arm-eabi/lib/thumb\libstdc++.a(eh_aux_runtime.o)
 .ARM.attributes
                0x000002d0       0x32 c:/users/gordon/documents/university/computer_graphics_architecture/dev/devkitpro/devkitarm/bin/../lib/gcc/arm-eabi/4.6.1/../../../../arm-eabi/lib/thumb\libstdc++.a(eh_call.o)
 .ARM.attributes
                0x00000302       0x32 c:/users/gordon/documents/university/computer_graphics_architecture/dev/devkitpro/devkitarm/bin/../lib/gcc/arm-eabi/4.6.1/../../../../arm-eabi/lib/thumb\libstdc++.a(eh_catch.o)
 .ARM.attributes
                0x00000334       0x32 c:/users/gordon/documents/university/computer_graphics_architecture/dev/devkitpro/devkitarm/bin/../lib/gcc/arm-eabi/4.6.1/../../../../arm-eabi/lib/thumb\libstdc++.a(eh_exception.o)
 .ARM.attributes
                0x00000366       0x32 c:/users/gordon/documents/university/computer_graphics_architecture/dev/devkitpro/devkitarm/bin/../lib/gcc/arm-eabi/4.6.1/../../../../arm-eabi/lib/thumb\libstdc++.a(eh_globals.o)
 .ARM.attributes
                0x00000398       0x32 c:/users/gordon/documents/university/computer_graphics_architecture/dev/devkitpro/devkitarm/bin/../lib/gcc/arm-eabi/4.6.1/../../../../arm-eabi/lib/thumb\libstdc++.a(eh_personality.o)
 .ARM.attributes
                0x000003ca       0x32 c:/users/gordon/documents/university/computer_graphics_architecture/dev/devkitpro/devkitarm/bin/../lib/gcc/arm-eabi/4.6.1/../../../../arm-eabi/lib/thumb\libstdc++.a(eh_terminate.o)
 .ARM.attributes
                0x000003fc       0x32 c:/users/gordon/documents/university/computer_graphics_architecture/dev/devkitpro/devkitarm/bin/../lib/gcc/arm-eabi/4.6.1/../../../../arm-eabi/lib/thumb\libstdc++.a(eh_term_handler.o)
 .ARM.attributes
                0x0000042e       0x32 c:/users/gordon/documents/university/computer_graphics_architecture/dev/devkitpro/devkitarm/bin/../lib/gcc/arm-eabi/4.6.1/../../../../arm-eabi/lib/thumb\libstdc++.a(eh_throw.o)
 .ARM.attributes
                0x00000460       0x32 c:/users/gordon/documents/university/computer_graphics_architecture/dev/devkitpro/devkitarm/bin/../lib/gcc/arm-eabi/4.6.1/../../../../arm-eabi/lib/thumb\libstdc++.a(eh_unex_handler.o)
 .ARM.attributes
                0x00000492       0x32 c:/users/gordon/documents/university/computer_graphics_architecture/dev/devkitpro/devkitarm/bin/../lib/gcc/arm-eabi/4.6.1/../../../../arm-eabi/lib/thumb\libstdc++.a(fundamental_type_info.o)
 .ARM.attributes
                0x000004c4       0x32 c:/users/gordon/documents/university/computer_graphics_architecture/dev/devkitpro/devkitarm/bin/../lib/gcc/arm-eabi/4.6.1/../../../../arm-eabi/lib/thumb\libstdc++.a(new_handler.o)
 .ARM.attributes
                0x000004f6       0x32 c:/users/gordon/documents/university/computer_graphics_architecture/dev/devkitpro/devkitarm/bin/../lib/gcc/arm-eabi/4.6.1/../../../../arm-eabi/lib/thumb\libstdc++.a(pointer_type_info.o)
 .ARM.attributes
                0x00000528       0x32 c:/users/gordon/documents/university/computer_graphics_architecture/dev/devkitpro/devkitarm/bin/../lib/gcc/arm-eabi/4.6.1/../../../../arm-eabi/lib/thumb\libstdc++.a(pure.o)
 .ARM.attributes
                0x0000055a       0x32 c:/users/gordon/documents/university/computer_graphics_architecture/dev/devkitpro/devkitarm/bin/../lib/gcc/arm-eabi/4.6.1/../../../../arm-eabi/lib/thumb\libstdc++.a(si_class_type_info.o)
 .ARM.attributes
                0x0000058c       0x32 c:/users/gordon/documents/university/computer_graphics_architecture/dev/devkitpro/devkitarm/bin/../lib/gcc/arm-eabi/4.6.1/../../../../arm-eabi/lib/thumb\libstdc++.a(tinfo.o)
 .ARM.attributes
                0x000005be       0x32 c:/users/gordon/documents/university/computer_graphics_architecture/dev/devkitpro/devkitarm/bin/../lib/gcc/arm-eabi/4.6.1/../../../../arm-eabi/lib/thumb\libstdc++.a(vterminate.o)
 .ARM.attributes
                0x000005f0       0x32 c:/users/gordon/documents/university/computer_graphics_architecture/dev/devkitpro/devkitarm/bin/../lib/gcc/arm-eabi/4.6.1/../../../../arm-eabi/lib/thumb\libstdc++.a(bad_cast.o)
 .ARM.attributes
                0x00000622       0x32 c:/users/gordon/documents/university/computer_graphics_architecture/dev/devkitpro/devkitarm/bin/../lib/gcc/arm-eabi/4.6.1/../../../../arm-eabi/lib/thumb\libstdc++.a(bad_typeid.o)
 .ARM.attributes
                0x00000654       0x32 c:/users/gordon/documents/university/computer_graphics_architecture/dev/devkitpro/devkitarm/bin/../lib/gcc/arm-eabi/4.6.1/../../../../arm-eabi/lib/thumb\libstdc++.a(class_type_info.o)
 .ARM.attributes
                0x00000686       0x32 c:/users/gordon/documents/university/computer_graphics_architecture/dev/devkitpro/devkitarm/bin/../lib/gcc/arm-eabi/4.6.1/../../../../arm-eabi/lib/thumb\libstdc++.a(cp-demangle.o)
 .ARM.attributes
                0x000006b8       0x32 c:/users/gordon/documents/university/computer_graphics_architecture/dev/devkitpro/devkitarm/bin/../lib/gcc/arm-eabi/4.6.1/../../../../arm-eabi/lib/thumb\libstdc++.a(eh_type.o)
 .ARM.attributes
                0x000006ea       0x32 c:/users/gordon/documents/university/computer_graphics_architecture/dev/devkitpro/devkitarm/bin/../lib/gcc/arm-eabi/4.6.1/../../../../arm-eabi/lib/thumb\libstdc++.a(pbase_type_info.o)
 .ARM.attributes
                0x0000071c       0x1a c:/users/gordon/documents/university/computer_graphics_architecture/dev/devkitpro/devkitarm/bin/../lib/gcc/arm-eabi/4.6.1/thumb\libgcc.a(_udivsi3.o)
 .ARM.attributes
                0x00000736       0x18 c:/users/gordon/documents/university/computer_graphics_architecture/dev/devkitpro/devkitarm/bin/../lib/gcc/arm-eabi/4.6.1/thumb\libgcc.a(_dvmd_tls.o)
 .ARM.attributes
                0x0000074e       0x32 c:/users/gordon/documents/university/computer_graphics_architecture/dev/devkitpro/devkitarm/bin/../lib/gcc/arm-eabi/4.6.1/thumb\libgcc.a(unwind-arm.o)
 .ARM.attributes
                0x00000780       0x1e c:/users/gordon/documents/university/computer_graphics_architecture/dev/devkitpro/devkitarm/bin/../lib/gcc/arm-eabi/4.6.1/thumb\libgcc.a(libunwind.o)
 .ARM.attributes
                0x0000079e       0x32 c:/users/gordon/documents/university/computer_graphics_architecture/dev/devkitpro/devkitarm/bin/../lib/gcc/arm-eabi/4.6.1/thumb\libgcc.a(pr-support.o)
 .ARM.attributes
                0x000007d0       0x32 c:/users/gordon/documents/university/computer_graphics_architecture/dev/devkitpro/devkitarm/bin/../lib/gcc/arm-eabi/4.6.1/../../../../arm-eabi/lib/thumb\libg.a(lib_a-abort.o)
 .ARM.attributes
                0x00000802       0x32 c:/users/gordon/documents/university/computer_graphics_architecture/dev/devkitpro/devkitarm/bin/../lib/gcc/arm-eabi/4.6.1/../../../../arm-eabi/lib/thumb\libg.a(lib_a-fputc.o)
 .ARM.attributes
                0x00000834       0x32 c:/users/gordon/documents/university/computer_graphics_architecture/dev/devkitpro/devkitarm/bin/../lib/gcc/arm-eabi/4.6.1/../../../../arm-eabi/lib/thumb\libg.a(lib_a-fputs.o)
 .ARM.attributes
                0x00000866       0x32 c:/users/gordon/documents/university/computer_graphics_architecture/dev/devkitpro/devkitarm/bin/../lib/gcc/arm-eabi/4.6.1/../../../../arm-eabi/lib/thumb\libg.a(lib_a-fvwrite.o)
 .ARM.attributes
                0x00000898       0x32 c:/users/gordon/documents/university/computer_graphics_architecture/dev/devkitpro/devkitarm/bin/../lib/gcc/arm-eabi/4.6.1/../../../../arm-eabi/lib/thumb\libg.a(lib_a-fwrite.o)
 .ARM.attributes
                0x000008ca       0x32 c:/users/gordon/documents/university/computer_graphics_architecture/dev/devkitpro/devkitarm/bin/../lib/gcc/arm-eabi/4.6.1/../../../../arm-eabi/lib/thumb\libg.a(lib_a-impure.o)
 .ARM.attributes
                0x000008fc       0x32 c:/users/gordon/documents/university/computer_graphics_architecture/dev/devkitpro/devkitarm/bin/../lib/gcc/arm-eabi/4.6.1/../../../../arm-eabi/lib/thumb\libg.a(lib_a-init.o)
 .ARM.attributes
                0x0000092e       0x32 c:/users/gordon/documents/university/computer_graphics_architecture/dev/devkitpro/devkitarm/bin/../lib/gcc/arm-eabi/4.6.1/../../../../arm-eabi/lib/thumb\libg.a(lib_a-malloc.o)
 .ARM.attributes
                0x00000960       0x32 c:/users/gordon/documents/university/computer_graphics_architecture/dev/devkitpro/devkitarm/bin/../lib/gcc/arm-eabi/4.6.1/../../../../arm-eabi/lib/thumb\libg.a(lib_a-mallocr.o)
 .ARM.attributes
                0x00000992       0x32 c:/users/gordon/documents/university/computer_graphics_architecture/dev/devkitpro/devkitarm/bin/../lib/gcc/arm-eabi/4.6.1/../../../../arm-eabi/lib/thumb\libg.a(lib_a-memchr.o)
 .ARM.attributes
                0x000009c4       0x32 c:/users/gordon/documents/university/computer_graphics_architecture/dev/devkitpro/devkitarm/bin/../lib/gcc/arm-eabi/4.6.1/../../../../arm-eabi/lib/thumb\libg.a(lib_a-memcmp.o)
 .ARM.attributes
                0x000009f6       0x32 c:/users/gordon/documents/university/computer_graphics_architecture/dev/devkitpro/devkitarm/bin/../lib/gcc/arm-eabi/4.6.1/../../../../arm-eabi/lib/thumb\libg.a(lib_a-memcpy.o)
 .ARM.attributes
                0x00000a28       0x32 c:/users/gordon/documents/university/computer_graphics_architecture/dev/devkitpro/devkitarm/bin/../lib/gcc/arm-eabi/4.6.1/../../../../arm-eabi/lib/thumb\libg.a(lib_a-memmove.o)
 .ARM.attributes
                0x00000a5a       0x32 c:/users/gordon/documents/university/computer_graphics_architecture/dev/devkitpro/devkitarm/bin/../lib/gcc/arm-eabi/4.6.1/../../../../arm-eabi/lib/thumb\libg.a(lib_a-memset.o)
 .ARM.attributes
                0x00000a8c       0x32 c:/users/gordon/documents/university/computer_graphics_architecture/dev/devkitpro/devkitarm/bin/../lib/gcc/arm-eabi/4.6.1/../../../../arm-eabi/lib/thumb\libg.a(lib_a-mlock.o)
 .ARM.attributes
                0x00000abe       0x32 c:/users/gordon/documents/university/computer_graphics_architecture/dev/devkitpro/devkitarm/bin/../lib/gcc/arm-eabi/4.6.1/../../../../arm-eabi/lib/thumb\libg.a(lib_a-putc.o)
 .ARM.attributes
                0x00000af0       0x32 c:/users/gordon/documents/university/computer_graphics_architecture/dev/devkitpro/devkitarm/bin/../lib/gcc/arm-eabi/4.6.1/../../../../arm-eabi/lib/thumb\libg.a(lib_a-realloc.o)
 .ARM.attributes
                0x00000b22       0x32 c:/users/gordon/documents/university/computer_graphics_architecture/dev/devkitpro/devkitarm/bin/../lib/gcc/arm-eabi/4.6.1/../../../../arm-eabi/lib/thumb\libg.a(lib_a-reallocr.o)
 .ARM.attributes
                0x00000b54       0x32 c:/users/gordon/documents/university/computer_graphics_architecture/dev/devkitpro/devkitarm/bin/../lib/gcc/arm-eabi/4.6.1/../../../../arm-eabi/lib/thumb\libg.a(lib_a-signal.o)
 .ARM.attributes
                0x00000b86       0x32 c:/users/gordon/documents/university/computer_graphics_architecture/dev/devkitpro/devkitarm/bin/../lib/gcc/arm-eabi/4.6.1/../../../../arm-eabi/lib/thumb\libg.a(lib_a-sprintf.o)
 .ARM.attributes
                0x00000bb8       0x32 c:/users/gordon/documents/university/computer_graphics_architecture/dev/devkitpro/devkitarm/bin/../lib/gcc/arm-eabi/4.6.1/../../../../arm-eabi/lib/thumb\libg.a(lib_a-strcmp.o)
 .ARM.attributes
                0x00000bea       0x32 c:/users/gordon/documents/university/computer_graphics_architecture/dev/devkitpro/devkitarm/bin/../lib/gcc/arm-eabi/4.6.1/../../../../arm-eabi/lib/thumb\libg.a(lib_a-strcpy.o)
 .ARM.attributes
                0x00000c1c       0x32 c:/users/gordon/documents/university/computer_graphics_architecture/dev/devkitpro/devkitarm/bin/../lib/gcc/arm-eabi/4.6.1/../../../../arm-eabi/lib/thumb\libg.a(lib_a-strlen.o)
 .ARM.attributes
                0x00000c4e       0x32 c:/users/gordon/documents/university/computer_graphics_architecture/dev/devkitpro/devkitarm/bin/../lib/gcc/arm-eabi/4.6.1/../../../../arm-eabi/lib/thumb\libg.a(lib_a-strncmp.o)
 .ARM.attributes
                0x00000c80       0x32 c:/users/gordon/documents/university/computer_graphics_architecture/dev/devkitpro/devkitarm/bin/../lib/gcc/arm-eabi/4.6.1/../../../../arm-eabi/lib/thumb\libg.a(lib_a-svfprintf.o)
 .ARM.attributes
                0x00000cb2       0x32 c:/users/gordon/documents/university/computer_graphics_architecture/dev/devkitpro/devkitarm/bin/../lib/gcc/arm-eabi/4.6.1/../../../../arm-eabi/lib/thumb\libg.a(lib_a-syswrite.o)
 .ARM.attributes
                0x00000ce4       0x32 c:/users/gordon/documents/university/computer_graphics_architecture/dev/devkitpro/devkitarm/bin/../lib/gcc/arm-eabi/4.6.1/../../../../arm-eabi/lib/thumb\libg.a(lib_a-wbuf.o)
 .ARM.attributes
                0x00000d16       0x32 c:/users/gordon/documents/university/computer_graphics_architecture/dev/devkitpro/devkitarm/bin/../lib/gcc/arm-eabi/4.6.1/../../../../arm-eabi/lib/thumb\libg.a(lib_a-wcrtomb.o)
 .ARM.attributes
                0x00000d48       0x32 c:/users/gordon/documents/university/computer_graphics_architecture/dev/devkitpro/devkitarm/bin/../lib/gcc/arm-eabi/4.6.1/../../../../arm-eabi/lib/thumb\libg.a(lib_a-wcsrtombs.o)
 .ARM.attributes
                0x00000d7a       0x32 c:/users/gordon/documents/university/computer_graphics_architecture/dev/devkitpro/devkitarm/bin/../lib/gcc/arm-eabi/4.6.1/../../../../arm-eabi/lib/thumb\libg.a(lib_a-wctomb_r.o)
 .ARM.attributes
                0x00000dac       0x32 c:/users/gordon/documents/university/computer_graphics_architecture/dev/devkitpro/devkitarm/bin/../lib/gcc/arm-eabi/4.6.1/../../../../arm-eabi/lib/thumb\libg.a(lib_a-wsetup.o)
 .ARM.attributes
                0x00000dde       0x32 c:/users/gordon/documents/university/computer_graphics_architecture/dev/devkitpro/devkitarm/bin/../lib/gcc/arm-eabi/4.6.1/../../../../arm-eabi/lib/thumb\libg.a(lib_a-dtoa.o)
 .ARM.attributes
                0x00000e10       0x32 c:/users/gordon/documents/university/computer_graphics_architecture/dev/devkitpro/devkitarm/bin/../lib/gcc/arm-eabi/4.6.1/../../../../arm-eabi/lib/thumb\libg.a(lib_a-fflush.o)
 .ARM.attributes
                0x00000e42       0x32 c:/users/gordon/documents/university/computer_graphics_architecture/dev/devkitpro/devkitarm/bin/../lib/gcc/arm-eabi/4.6.1/../../../../arm-eabi/lib/thumb\libg.a(lib_a-findfp.o)
 .ARM.attributes
                0x00000e74       0x32 c:/users/gordon/documents/university/computer_graphics_architecture/dev/devkitpro/devkitarm/bin/../lib/gcc/arm-eabi/4.6.1/../../../../arm-eabi/lib/thumb\libg.a(lib_a-freer.o)
 .ARM.attributes
                0x00000ea6       0x32 c:/users/gordon/documents/university/computer_graphics_architecture/dev/devkitpro/devkitarm/bin/../lib/gcc/arm-eabi/4.6.1/../../../../arm-eabi/lib/thumb\libg.a(lib_a-fwalk.o)
 .ARM.attributes
                0x00000ed8       0x32 c:/users/gordon/documents/university/computer_graphics_architecture/dev/devkitpro/devkitarm/bin/../lib/gcc/arm-eabi/4.6.1/../../../../arm-eabi/lib/thumb\libg.a(lib_a-locale.o)
 .ARM.attributes
                0x00000f0a       0x32 c:/users/gordon/documents/university/computer_graphics_architecture/dev/devkitpro/devkitarm/bin/../lib/gcc/arm-eabi/4.6.1/../../../../arm-eabi/lib/thumb\libg.a(lib_a-makebuf.o)
 .ARM.attributes
                0x00000f3c       0x32 c:/users/gordon/documents/university/computer_graphics_architecture/dev/devkitpro/devkitarm/bin/../lib/gcc/arm-eabi/4.6.1/../../../../arm-eabi/lib/thumb\libg.a(lib_a-mbtowc_r.o)
 .ARM.attributes
                0x00000f6e       0x32 c:/users/gordon/documents/university/computer_graphics_architecture/dev/devkitpro/devkitarm/bin/../lib/gcc/arm-eabi/4.6.1/../../../../arm-eabi/lib/thumb\libg.a(lib_a-mprec.o)
 .ARM.attributes
                0x00000fa0       0x32 c:/users/gordon/documents/university/computer_graphics_architecture/dev/devkitpro/devkitarm/bin/../lib/gcc/arm-eabi/4.6.1/../../../../arm-eabi/lib/thumb\libg.a(lib_a-s_fpclassify.o)
 .ARM.attributes
                0x00000fd2       0x32 c:/users/gordon/documents/university/computer_graphics_architecture/dev/devkitpro/devkitarm/bin/../lib/gcc/arm-eabi/4.6.1/../../../../arm-eabi/lib/thumb\libg.a(lib_a-stdio.o)
 .ARM.attributes
                0x00001004       0x32 c:/users/gordon/documents/university/computer_graphics_architecture/dev/devkitpro/devkitarm/bin/../lib/gcc/arm-eabi/4.6.1/../../../../arm-eabi/lib/thumb\libg.a(lib_a-strcasecmp.o)
 .ARM.attributes
                0x00001036       0x32 c:/users/gordon/documents/university/computer_graphics_architecture/dev/devkitpro/devkitarm/bin/../lib/gcc/arm-eabi/4.6.1/../../../../arm-eabi/lib/thumb\libg.a(lib_a-strcat.o)
 .ARM.attributes
                0x00001068       0x32 c:/users/gordon/documents/university/computer_graphics_architecture/dev/devkitpro/devkitarm/bin/../lib/gcc/arm-eabi/4.6.1/../../../../arm-eabi/lib/thumb\libg.a(lib_a-strchr.o)
 .ARM.attributes
                0x0000109a       0x32 c:/users/gordon/documents/university/computer_graphics_architecture/dev/devkitpro/devkitarm/bin/../lib/gcc/arm-eabi/4.6.1/../../../../arm-eabi/lib/thumb\libg.a(lib_a-strlcpy.o)
 .ARM.attributes
                0x000010cc       0x32 c:/users/gordon/documents/university/computer_graphics_architecture/dev/devkitpro/devkitarm/bin/../lib/gcc/arm-eabi/4.6.1/../../../../arm-eabi/lib/thumb\libg.a(lib_a-strncasecmp.o)
 .ARM.attributes
                0x000010fe       0x32 c:/users/gordon/documents/university/computer_graphics_architecture/dev/devkitpro/devkitarm/bin/../lib/gcc/arm-eabi/4.6.1/../../../../arm-eabi/lib/thumb\libg.a(lib_a-strncpy.o)
 .ARM.attributes
                0x00001130       0x32 c:/users/gordon/documents/university/computer_graphics_architecture/dev/devkitpro/devkitarm/bin/../lib/gcc/arm-eabi/4.6.1/../../../../arm-eabi/lib/thumb\libg.a(lib_a-strtol.o)
 .ARM.attributes
                0x00001162       0x32 c:/users/gordon/documents/university/computer_graphics_architecture/dev/devkitpro/devkitarm/bin/../lib/gcc/arm-eabi/4.6.1/../../../../arm-eabi/lib/thumb\libg.a(lib_a-svfiprintf.o)
 .ARM.attributes
                0x00001194       0x32 c:/users/gordon/documents/university/computer_graphics_architecture/dev/devkitpro/devkitarm/bin/../lib/gcc/arm-eabi/4.6.1/../../../../arm-eabi/lib/thumb\libg.a(lib_a-wcsnrtombs.o)
 .ARM.attributes
                0x000011c6       0x32 c:/users/gordon/documents/university/computer_graphics_architecture/dev/devkitpro/devkitarm/bin/../lib/gcc/arm-eabi/4.6.1/../../../../arm-eabi/lib/thumb\libg.a(lib_a-callocr.o)
 .ARM.attributes
                0x000011f8       0x32 c:/users/gordon/documents/university/computer_graphics_architecture/dev/devkitpro/devkitarm/bin/../lib/gcc/arm-eabi/4.6.1/../../../../arm-eabi/lib/thumb\libg.a(lib_a-ctype_.o)
 .ARM.attributes
                0x0000122a       0x32 c:/users/gordon/documents/university/computer_graphics_architecture/dev/devkitpro/devkitarm/bin/../lib/gcc/arm-eabi/4.6.1/../../../../arm-eabi/lib/thumb\libg.a(lib_a-fclose.o)
 .ARM.attributes
                0x0000125c       0x32 c:/users/gordon/documents/university/computer_graphics_architecture/dev/devkitpro/devkitarm/bin/../lib/gcc/arm-eabi/4.6.1/../../../../arm-eabi/lib/thumb\libg.a(lib_a-getenv_r.o)
 .ARM.attributes
                0x0000128e       0x32 c:/users/gordon/documents/university/computer_graphics_architecture/dev/devkitpro/devkitarm/bin/../lib/gcc/arm-eabi/4.6.1/../../../../arm-eabi/lib/thumb\libg.a(lib_a-environ.o)
 .ARM.attributes
                0x000012c0       0x32 c:/users/gordon/documents/university/computer_graphics_architecture/dev/devkitpro/devkitarm/bin/../lib/gcc/arm-eabi/4.6.1/../../../../arm-eabi/lib/thumb\libg.a(lib_a-envlock.o)
 .ARM.attributes
                0x000012f2       0x32 c:/users/gordon/documents/university/computer_graphics_architecture/dev/devkitpro/devkitarm/bin/../lib/gcc/arm-eabi/4.6.1/../../../../arm-eabi/lib/thumb\libsysbase.a(close.o)
 .ARM.attributes
                0x00001324       0x32 c:/users/gordon/documents/university/computer_graphics_architecture/dev/devkitpro/devkitarm/bin/../lib/gcc/arm-eabi/4.6.1/../../../../arm-eabi/lib/thumb\libsysbase.a(fstat.o)
 .ARM.attributes
                0x00001356       0x32 c:/users/gordon/documents/university/computer_graphics_architecture/dev/devkitpro/devkitarm/bin/../lib/gcc/arm-eabi/4.6.1/../../../../arm-eabi/lib/thumb\libsysbase.a(getpid.o)
 .ARM.attributes
                0x00001388       0x32 c:/users/gordon/documents/university/computer_graphics_architecture/dev/devkitpro/devkitarm/bin/../lib/gcc/arm-eabi/4.6.1/../../../../arm-eabi/lib/thumb\libsysbase.a(isatty.o)
 .ARM.attributes
                0x000013ba       0x32 c:/users/gordon/documents/university/computer_graphics_architecture/dev/devkitpro/devkitarm/bin/../lib/gcc/arm-eabi/4.6.1/../../../../arm-eabi/lib/thumb\libsysbase.a(kill.o)
 .ARM.attributes
                0x000013ec       0x32 c:/users/gordon/documents/university/computer_graphics_architecture/dev/devkitpro/devkitarm/bin/../lib/gcc/arm-eabi/4.6.1/../../../../arm-eabi/lib/thumb\libsysbase.a(lseek.o)
 .ARM.attributes
                0x0000141e       0x32 c:/users/gordon/documents/university/computer_graphics_architecture/dev/devkitpro/devkitarm/bin/../lib/gcc/arm-eabi/4.6.1/../../../../arm-eabi/lib/thumb\libsysbase.a(read.o)
 .ARM.attributes
                0x00001450       0x32 c:/users/gordon/documents/university/computer_graphics_architecture/dev/devkitpro/devkitarm/bin/../lib/gcc/arm-eabi/4.6.1/../../../../arm-eabi/lib/thumb\libsysbase.a(sbrk.o)
 .ARM.attributes
                0x00001482       0x32 c:/users/gordon/documents/university/computer_graphics_architecture/dev/devkitpro/devkitarm/bin/../lib/gcc/arm-eabi/4.6.1/../../../../arm-eabi/lib/thumb\libsysbase.a(write.o)
 .ARM.attributes
                0x000014b4       0x32 c:/users/gordon/documents/university/computer_graphics_architecture/dev/devkitpro/devkitarm/bin/../lib/gcc/arm-eabi/4.6.1/../../../../arm-eabi/lib/thumb\libsysbase.a(_exit.o)
 .ARM.attributes
                0x000014e6       0x32 c:/users/gordon/documents/university/computer_graphics_architecture/dev/devkitpro/devkitarm/bin/../lib/gcc/arm-eabi/4.6.1/../../../../arm-eabi/lib/thumb\libsysbase.a(malloc_vars.o)
 .ARM.attributes
                0x00001518       0x32 c:/users/gordon/documents/university/computer_graphics_architecture/dev/devkitpro/devkitarm/bin/../lib/gcc/arm-eabi/4.6.1/../../../../arm-eabi/lib/thumb\libsysbase.a(syscall_support.o)
 .ARM.attributes
                0x0000154a       0x32 c:/users/gordon/documents/university/computer_graphics_architecture/dev/devkitpro/devkitarm/bin/../lib/gcc/arm-eabi/4.6.1/../../../../arm-eabi/lib/thumb\libsysbase.a(handle_manager.o)
 .ARM.attributes
                0x0000157c       0x32 c:/users/gordon/documents/university/computer_graphics_architecture/dev/devkitpro/devkitarm/bin/../lib/gcc/arm-eabi/4.6.1/../../../../arm-eabi/lib/thumb\libsysbase.a(iosupport.o)
 .ARM.attributes
                0x000015ae       0x1a c:/users/gordon/documents/university/computer_graphics_architecture/dev/devkitpro/devkitarm/bin/../lib/gcc/arm-eabi/4.6.1/thumb\libgcc.a(_divsi3.o)
 .ARM.attributes
                0x000015c8       0x1a c:/users/gordon/documents/university/computer_graphics_architecture/dev/devkitpro/devkitarm/bin/../lib/gcc/arm-eabi/4.6.1/thumb\libgcc.a(_arm_addsubdf3.o)
 .ARM.attributes
                0x000015e2       0x1a c:/users/gordon/documents/university/computer_graphics_architecture/dev/devkitpro/devkitarm/bin/../lib/gcc/arm-eabi/4.6.1/thumb\libgcc.a(_arm_muldivdf3.o)
 .ARM.attributes
                0x000015fc       0x1a c:/users/gordon/documents/university/computer_graphics_architecture/dev/devkitpro/devkitarm/bin/../lib/gcc/arm-eabi/4.6.1/thumb\libgcc.a(_arm_cmpdf2.o)
 .ARM.attributes
                0x00001616       0x1a c:/users/gordon/documents/university/computer_graphics_architecture/dev/devkitpro/devkitarm/bin/../lib/gcc/arm-eabi/4.6.1/thumb\libgcc.a(_arm_fixdfsi.o)
 .ARM.attributes
                0x00001630       0x1a c:/users/gordon/documents/university/computer_graphics_architecture/dev/devkitpro/devkitarm/bin/../lib/gcc/arm-eabi/4.6.1/thumb\libgcc.a(_aeabi_uldivmod.o)
 .ARM.attributes
                0x0000164a       0x32 c:/users/gordon/documents/university/computer_graphics_architecture/dev/devkitpro/devkitarm/bin/../lib/gcc/arm-eabi/4.6.1/thumb\libgcc.a(bpabi.o)
 .ARM.attributes
                0x0000167c       0x32 c:/users/gordon/documents/university/computer_graphics_architecture/dev/devkitpro/devkitarm/bin/../lib/gcc/arm-eabi/4.6.1/thumb\libgcc.a(_muldi3.o)
 .ARM.attributes
                0x000016ae       0x32 c:/users/gordon/documents/university/computer_graphics_architecture/dev/devkitpro/devkitarm/bin/../lib/gcc/arm-eabi/4.6.1/thumb\libgcc.a(_divdi3.o)
 .ARM.attributes
                0x000016e0       0x32 c:/users/gordon/documents/university/computer_graphics_architecture/dev/devkitpro/devkitarm/bin/../lib/gcc/arm-eabi/4.6.1/thumb\libgcc.a(_udivdi3.o)
 .ARM.attributes
                0x00001712       0x1a c:/users/gordon/documents/university/computer_graphics_architecture/dev/devkitpro/devkitarm/bin/../lib/gcc/arm-eabi/4.6.1/thumb\libgcc.a(_clzsi2.o)
 .ARM.attributes
                0x0000172c       0x32 c:/users/gordon/documents/university/computer_graphics_architecture/dev/devkitpro/devkitarm/bin/../lib/gcc/arm-eabi/4.6.1/thumb/crtend.o
 .ARM.attributes
                0x0000175e       0x18 c:/users/gordon/documents/university/computer_graphics_architecture/dev/devkitpro/devkitarm/bin/../lib/gcc/arm-eabi/4.6.1/thumb/crtn.o

/DISCARD/
 *(.note.GNU-stack)
LOAD c:/users/gordon/documents/university/computer_graphics_architecture/dev/devkitpro/devkitarm/bin/../lib/gcc/arm-eabi/4.6.1/../../../../arm-eabi/lib/thumb/gba_crt0.o
LOAD c:/users/gordon/documents/university/computer_graphics_architecture/dev/devkitpro/devkitarm/bin/../lib/gcc/arm-eabi/4.6.1/thumb/crti.o
LOAD c:/users/gordon/documents/university/computer_graphics_architecture/dev/devkitpro/devkitarm/bin/../lib/gcc/arm-eabi/4.6.1/thumb/crtbegin.o
LOAD tiles.o
LOAD font.o
LOAD gba.o
LOAD main.o
LOAD player.o
LOAD util.o
LOAD world.o
LOAD c:/Users/Gordon/Documents/University/Computer_Graphics_Architecture/dev/devkitPro/libgba/lib\libgba.a
LOAD c:/users/gordon/documents/university/computer_graphics_architecture/dev/devkitpro/devkitarm/bin/../lib/gcc/arm-eabi/4.6.1/../../../../arm-eabi/lib/thumb\libstdc++.a
LOAD c:/users/gordon/documents/university/computer_graphics_architecture/dev/devkitpro/devkitarm/bin/../lib/gcc/arm-eabi/4.6.1/../../../../arm-eabi/lib/thumb\libm.a
START GROUP
LOAD c:/users/gordon/documents/university/computer_graphics_architecture/dev/devkitpro/devkitarm/bin/../lib/gcc/arm-eabi/4.6.1/thumb\libgcc.a
LOAD c:/users/gordon/documents/university/computer_graphics_architecture/dev/devkitpro/devkitarm/bin/../lib/gcc/arm-eabi/4.6.1/../../../../arm-eabi/lib/thumb\libg.a
LOAD c:/users/gordon/documents/university/computer_graphics_architecture/dev/devkitpro/devkitarm/bin/../lib/gcc/arm-eabi/4.6.1/../../../../arm-eabi/lib/thumb\libc.a
LOAD c:/users/gordon/documents/university/computer_graphics_architecture/dev/devkitpro/devkitarm/bin/../lib/gcc/arm-eabi/4.6.1/../../../../arm-eabi/lib/thumb\libsysbase.a
END GROUP
LOAD c:/users/gordon/documents/university/computer_graphics_architecture/dev/devkitpro/devkitarm/bin/../lib/gcc/arm-eabi/4.6.1/thumb/crtend.o
LOAD c:/users/gordon/documents/university/computer_graphics_architecture/dev/devkitpro/devkitarm/bin/../lib/gcc/arm-eabi/4.6.1/thumb/crtn.o
OUTPUT(c:/Projects/LimitSky/LimitSky/dist/LimitSky.elf elf32-littlearm)

.debug_ranges   0x00000000      0x250
 .debug_ranges  0x00000000       0xe0 gba.o
 .debug_ranges  0x000000e0       0xf0 main.o
 .debug_ranges  0x000001d0       0x50 player.o
 .debug_ranges  0x00000220       0x30 world.o
